
genetic_benchmark:     file format elf64-x86-64


Disassembly of section .text:

0000000000006ea0 <_start>:
    6ea0:	f3 0f 1e fa          	endbr64 
    6ea4:	31 ed                	xor    %ebp,%ebp
    6ea6:	49 89 d1             	mov    %rdx,%r9
    6ea9:	5e                   	pop    %rsi
    6eaa:	48 89 e2             	mov    %rsp,%rdx
    6ead:	48 83 e4 f0          	and    $0xfffffffffffffff0,%rsp
    6eb1:	50                   	push   %rax
    6eb2:	54                   	push   %rsp
    6eb3:	4c 8d 05 26 06 01 00 	lea    0x10626(%rip),%r8        # 174e0 <__libc_csu_fini>
    6eba:	48 8d 0d af 05 01 00 	lea    0x105af(%rip),%rcx        # 17470 <__libc_csu_init>
    6ec1:	48 8d 3d 48 54 00 00 	lea    0x5448(%rip),%rdi        # c310 <main>
    6ec8:	ff 15 a2 1e 01 00    	callq  *0x11ea2(%rip)        # 18d70 <__libc_start_main@GLIBC_2.2.5>
    6ece:	f4                   	hlt    
    6ecf:	cc                   	int3   

0000000000006ed0 <deregister_tm_clones>:
    6ed0:	48 8d 3d 69 2f 01 00 	lea    0x12f69(%rip),%rdi        # 19e40 <__TMC_END__>
    6ed7:	48 8d 05 62 2f 01 00 	lea    0x12f62(%rip),%rax        # 19e40 <__TMC_END__>
    6ede:	48 39 f8             	cmp    %rdi,%rax
    6ee1:	74 15                	je     6ef8 <deregister_tm_clones+0x28>
    6ee3:	48 8b 05 96 1e 01 00 	mov    0x11e96(%rip),%rax        # 18d80 <_ITM_deregisterTMCloneTable@Base>
    6eea:	48 85 c0             	test   %rax,%rax
    6eed:	74 09                	je     6ef8 <deregister_tm_clones+0x28>
    6eef:	ff e0                	jmpq   *%rax
    6ef1:	0f 1f 80 00 00 00 00 	nopl   0x0(%rax)
    6ef8:	c3                   	retq   
    6ef9:	0f 1f 80 00 00 00 00 	nopl   0x0(%rax)

0000000000006f00 <register_tm_clones>:
    6f00:	48 8d 3d 39 2f 01 00 	lea    0x12f39(%rip),%rdi        # 19e40 <__TMC_END__>
    6f07:	48 8d 35 32 2f 01 00 	lea    0x12f32(%rip),%rsi        # 19e40 <__TMC_END__>
    6f0e:	48 29 fe             	sub    %rdi,%rsi
    6f11:	48 89 f0             	mov    %rsi,%rax
    6f14:	48 c1 ee 3f          	shr    $0x3f,%rsi
    6f18:	48 c1 f8 03          	sar    $0x3,%rax
    6f1c:	48 01 c6             	add    %rax,%rsi
    6f1f:	48 d1 fe             	sar    %rsi
    6f22:	74 14                	je     6f38 <register_tm_clones+0x38>
    6f24:	48 8b 05 5d 1e 01 00 	mov    0x11e5d(%rip),%rax        # 18d88 <_ITM_registerTMCloneTable@Base>
    6f2b:	48 85 c0             	test   %rax,%rax
    6f2e:	74 08                	je     6f38 <register_tm_clones+0x38>
    6f30:	ff e0                	jmpq   *%rax
    6f32:	66 0f 1f 44 00 00    	nopw   0x0(%rax,%rax,1)
    6f38:	c3                   	retq   
    6f39:	0f 1f 80 00 00 00 00 	nopl   0x0(%rax)

0000000000006f40 <__do_global_dtors_aux>:
    6f40:	f3 0f 1e fa          	endbr64 
    6f44:	80 3d 85 31 01 00 00 	cmpb   $0x0,0x13185(%rip)        # 1a0d0 <completed.0>
    6f4b:	75 2b                	jne    6f78 <__do_global_dtors_aux+0x38>
    6f4d:	55                   	push   %rbp
    6f4e:	48 83 3d 3a 1e 01 00 	cmpq   $0x0,0x11e3a(%rip)        # 18d90 <__cxa_finalize@GLIBC_2.2.5>
    6f55:	00 
    6f56:	48 89 e5             	mov    %rsp,%rbp
    6f59:	74 0c                	je     6f67 <__do_global_dtors_aux+0x27>
    6f5b:	48 8b 3d a6 2e 01 00 	mov    0x12ea6(%rip),%rdi        # 19e08 <__dso_handle>
    6f62:	e8 c9 05 01 00       	callq  17530 <__cxa_finalize@plt>
    6f67:	e8 64 ff ff ff       	callq  6ed0 <deregister_tm_clones>
    6f6c:	c6 05 5d 31 01 00 01 	movb   $0x1,0x1315d(%rip)        # 1a0d0 <completed.0>
    6f73:	5d                   	pop    %rbp
    6f74:	c3                   	retq   
    6f75:	0f 1f 00             	nopl   (%rax)
    6f78:	c3                   	retq   
    6f79:	0f 1f 80 00 00 00 00 	nopl   0x0(%rax)

0000000000006f80 <frame_dummy>:
    6f80:	f3 0f 1e fa          	endbr64 
    6f84:	e9 77 ff ff ff       	jmpq   6f00 <register_tm_clones>
    6f89:	cc                   	int3   
    6f8a:	cc                   	int3   
    6f8b:	cc                   	int3   
    6f8c:	cc                   	int3   
    6f8d:	cc                   	int3   
    6f8e:	cc                   	int3   
    6f8f:	cc                   	int3   

0000000000006f90 <_ZN5utils12load_datasetERKNSt7__cxx1112basic_stringIcSt11char_traitsIcESaIcEEE>:
// Utility functions
namespace utils {

    // Load dataset from CSV file
    std::pair<std::vector<std::vector<float>>, std::vector<float>>
    load_dataset(const std::string& filename) {
    6f90:	55                   	push   %rbp
    6f91:	41 57                	push   %r15
    6f93:	41 56                	push   %r14
    6f95:	41 55                	push   %r13
    6f97:	41 54                	push   %r12
    6f99:	53                   	push   %rbx
    6f9a:	48 81 ec 88 04 00 00 	sub    $0x488,%rsp
    6fa1:	48 89 f3             	mov    %rsi,%rbx
    6fa4:	48 89 7c 24 68       	mov    %rdi,0x68(%rsp)
	pointer _M_start;
	pointer _M_finish;
	pointer _M_end_of_storage;

	_Vector_impl_data() _GLIBCXX_NOEXCEPT
	: _M_start(), _M_finish(), _M_end_of_storage()
    6fa9:	0f 57 c0             	xorps  %xmm0,%xmm0
    6fac:	0f 29 44 24 30       	movaps %xmm0,0x30(%rsp)
    6fb1:	48 c7 44 24 40 00 00 	movq   $0x0,0x40(%rsp)
    6fb8:	00 00 
    6fba:	0f 29 44 24 50       	movaps %xmm0,0x50(%rsp)
    6fbf:	48 c7 44 24 60 00 00 	movq   $0x0,0x60(%rsp)
    6fc6:	00 00 
    6fc8:	48 8d bc 24 80 02 00 	lea    0x280(%rsp),%rdi
    6fcf:	00 
        std::vector<std::vector<float>> X;
        std::vector<float>              y;

        std::ifstream file(filename);
    6fd0:	ba 08 00 00 00       	mov    $0x8,%edx
    6fd5:	e8 66 05 01 00       	callq  17540 <_ZNSt14basic_ifstreamIcSt11char_traitsIcEEC1ERKNSt7__cxx1112basic_stringIcS1_SaIcEEESt13_Ios_Openmode@plt>
      /**
       *  @brief  Returns true if the external file is open.
       */
      bool
      is_open() const throw()
      { return _M_file.is_open(); }
    6fda:	48 8d bc 24 f8 02 00 	lea    0x2f8(%rsp),%rdi
    6fe1:	00 
    6fe2:	e8 99 06 01 00       	callq  17680 <_ZNKSt12__basic_fileIcE7is_openEv@plt>
        if (!file.is_open()) {
    6fe7:	84 c0                	test   %al,%al
    6fe9:	0f 84 af 06 00 00    	je     769e <_ZN5utils12load_datasetERKNSt7__cxx1112basic_stringIcSt11char_traitsIcESaIcEEE+0x70e>

      pointer
      _M_local_data()
      {
#if __cplusplus >= 201103L
	return std::pointer_traits<pointer>::pointer_to(*_M_local_buf);
    6fef:	48 8d 84 24 88 00 00 	lea    0x88(%rsp),%rax
    6ff6:	00 
	: allocator_type(std::move(__a)), _M_p(__dat) { }
    6ff7:	48 89 44 24 78       	mov    %rax,0x78(%rsp)
      { _M_string_length = __length; }
    6ffc:	48 c7 84 24 80 00 00 	movq   $0x0,0x80(%rsp)
    7003:	00 00 00 00 00 
      using comparison_category = strong_ordering;
#endif

      static _GLIBCXX17_CONSTEXPR void
      assign(char_type& __c1, const char_type& __c2) _GLIBCXX_NOEXCEPT
      { __c1 = __c2; }
    7008:	c6 84 24 88 00 00 00 	movb   $0x0,0x88(%rsp)
    700f:	00 
   */
  template<typename _CharT, typename _Traits, typename _Alloc>
    inline basic_istream<_CharT, _Traits>&
    getline(basic_istream<_CharT, _Traits>& __is,
	    basic_string<_CharT, _Traits, _Alloc>& __str)
    { return std::getline(__is, __str, __is.widen('\n')); }
    7010:	48 8b 84 24 80 02 00 	mov    0x280(%rsp),%rax
    7017:	00 
    7018:	48 8b 40 e8          	mov    -0x18(%rax),%rax
       *  Additional l10n notes are at
       *  http://gcc.gnu.org/onlinedocs/libstdc++/manual/localization.html
      */
      char_type
      widen(char __c) const
      { return __check_facet(_M_ctype).widen(__c); }
    701c:	48 8b 9c 04 70 03 00 	mov    0x370(%rsp,%rax,1),%rbx
    7023:	00 
      if (!__f)
    7024:	48 85 db             	test   %rbx,%rbx
    7027:	0f 84 5b 06 00 00    	je     7688 <_ZN5utils12load_datasetERKNSt7__cxx1112basic_stringIcSt11char_traitsIcESaIcEEE+0x6f8>
       *  @return  The converted character.
      */
      char_type
      widen(char __c) const
      {
	if (_M_widen_ok)
    702d:	80 7b 38 00          	cmpb   $0x0,0x38(%rbx)
    7031:	74 06                	je     7039 <_ZN5utils12load_datasetERKNSt7__cxx1112basic_stringIcSt11char_traitsIcESaIcEEE+0xa9>
	  return _M_widen[static_cast<unsigned char>(__c)];
    7033:	0f b6 43 43          	movzbl 0x43(%rbx),%eax
    7037:	eb 16                	jmp    704f <_ZN5utils12load_datasetERKNSt7__cxx1112basic_stringIcSt11char_traitsIcESaIcEEE+0xbf>
	this->_M_widen_init();
    7039:	48 89 df             	mov    %rbx,%rdi
    703c:	e8 ef 06 01 00       	callq  17730 <_ZNKSt5ctypeIcE13_M_widen_initEv@plt>
	return this->do_widen(__c);
    7041:	48 8b 03             	mov    (%rbx),%rax
    7044:	48 89 df             	mov    %rbx,%rdi
    7047:	be 0a 00 00 00       	mov    $0xa,%esi
    704c:	ff 50 30             	callq  *0x30(%rax)
    704f:	0f be d0             	movsbl %al,%edx
    7052:	48 8d bc 24 80 02 00 	lea    0x280(%rsp),%rdi
    7059:	00 
    705a:	48 8d 74 24 78       	lea    0x78(%rsp),%rsi
    705f:	e8 ec 05 01 00       	callq  17650 <_ZSt7getlineIcSt11char_traitsIcESaIcEERSt13basic_istreamIT_T0_ES7_RNSt7__cxx1112basic_stringIS4_S5_T1_EES4_@plt>
    7064:	48 8b 84 24 80 02 00 	mov    0x280(%rsp),%rax
    706b:	00 
    706c:	48 8b 40 e8          	mov    -0x18(%rax),%rax
      { return __check_facet(_M_ctype).widen(__c); }
    7070:	48 8b ac 04 70 03 00 	mov    0x370(%rsp,%rax,1),%rbp
    7077:	00 
      if (!__f)
    7078:	48 85 ed             	test   %rbp,%rbp
    707b:	0f 84 07 06 00 00    	je     7688 <_ZN5utils12load_datasetERKNSt7__cxx1112basic_stringIcSt11char_traitsIcESaIcEEE+0x6f8>
    7081:	48 8b 05 38 1d 01 00 	mov    0x11d38(%rip),%rax        # 18dc0 <_ZTTNSt7__cxx1118basic_stringstreamIcSt11char_traitsIcESaIcEEE@GLIBCXX_3.4.21>
    7088:	48 8b 08             	mov    (%rax),%rcx
    708b:	48 89 8c 24 e8 00 00 	mov    %rcx,0xe8(%rsp)
    7092:	00 
    7093:	48 8b 48 10          	mov    0x10(%rax),%rcx
    7097:	48 89 8c 24 e0 00 00 	mov    %rcx,0xe0(%rsp)
    709e:	00 
    709f:	48 8b 48 40          	mov    0x40(%rax),%rcx
    70a3:	48 89 8c 24 d8 00 00 	mov    %rcx,0xd8(%rsp)
    70aa:	00 
    70ab:	48 8b 48 48          	mov    0x48(%rax),%rcx
    70af:	48 89 8c 24 d0 00 00 	mov    %rcx,0xd0(%rsp)
    70b6:	00 
    70b7:	48 8b 40 18          	mov    0x18(%rax),%rax
    70bb:	48 89 84 24 c8 00 00 	mov    %rax,0xc8(%rsp)
    70c2:	00 
    70c3:	31 db                	xor    %ebx,%ebx
    70c5:	48 8b 05 ec 1c 01 00 	mov    0x11cec(%rip),%rax        # 18db8 <_ZTVNSt7__cxx1115basic_stringbufIcSt11char_traitsIcESaIcEEE@GLIBCXX_3.4.21>
    70cc:	48 83 c0 10          	add    $0x10,%rax
    70d0:	48 89 84 24 c0 00 00 	mov    %rax,0xc0(%rsp)
    70d7:	00 
    70d8:	48 8b 05 c1 1c 01 00 	mov    0x11cc1(%rip),%rax        # 18da0 <_ZTVSt15basic_streambufIcSt11char_traitsIcEE@GLIBCXX_3.4>
    70df:	48 83 c0 10          	add    $0x10,%rax
    70e3:	48 89 84 24 b8 00 00 	mov    %rax,0xb8(%rsp)
    70ea:	00 
    70eb:	4c 8d b4 24 f8 00 00 	lea    0xf8(%rsp),%r14
    70f2:	00 
    70f3:	31 c0                	xor    %eax,%eax
    70f5:	48 89 44 24 70       	mov    %rax,0x70(%rsp)
    70fa:	45 31 ff             	xor    %r15d,%r15d
    70fd:	eb 1e                	jmp    711d <_ZN5utils12load_datasetERKNSt7__cxx1112basic_stringIcSt11char_traitsIcESaIcEEE+0x18d>
    70ff:	90                   	nop
    7100:	48 8b 84 24 80 02 00 	mov    0x280(%rsp),%rax
    7107:	00 
    7108:	48 8b 40 e8          	mov    -0x18(%rax),%rax
      { return __check_facet(_M_ctype).widen(__c); }
    710c:	48 8b ac 04 70 03 00 	mov    0x370(%rsp,%rax,1),%rbp
    7113:	00 
      if (!__f)
    7114:	48 85 ed             	test   %rbp,%rbp
    7117:	0f 84 6b 05 00 00    	je     7688 <_ZN5utils12load_datasetERKNSt7__cxx1112basic_stringIcSt11char_traitsIcESaIcEEE+0x6f8>
	if (_M_widen_ok)
    711d:	80 7d 38 00          	cmpb   $0x0,0x38(%rbp)
    7121:	74 0d                	je     7130 <_ZN5utils12load_datasetERKNSt7__cxx1112basic_stringIcSt11char_traitsIcESaIcEEE+0x1a0>
	  return _M_widen[static_cast<unsigned char>(__c)];
    7123:	0f b6 45 43          	movzbl 0x43(%rbp),%eax
    7127:	eb 1e                	jmp    7147 <_ZN5utils12load_datasetERKNSt7__cxx1112basic_stringIcSt11char_traitsIcESaIcEEE+0x1b7>
    7129:	0f 1f 80 00 00 00 00 	nopl   0x0(%rax)
	this->_M_widen_init();
    7130:	48 89 ef             	mov    %rbp,%rdi
    7133:	e8 f8 05 01 00       	callq  17730 <_ZNKSt5ctypeIcE13_M_widen_initEv@plt>
	return this->do_widen(__c);
    7138:	48 8b 45 00          	mov    0x0(%rbp),%rax
    713c:	48 89 ef             	mov    %rbp,%rdi
    713f:	be 0a 00 00 00       	mov    $0xa,%esi
    7144:	ff 50 30             	callq  *0x30(%rax)
    7147:	0f be d0             	movsbl %al,%edx
    714a:	48 8d bc 24 80 02 00 	lea    0x280(%rsp),%rdi
    7151:	00 
    7152:	48 8d 74 24 78       	lea    0x78(%rsp),%rsi
    7157:	e8 f4 04 01 00       	callq  17650 <_ZSt7getlineIcSt11char_traitsIcESaIcEERSt13basic_istreamIT_T0_ES7_RNSt7__cxx1112basic_stringIS4_S5_T1_EES4_@plt>

        std::string line;
        // Skip header
        std::getline(file, line);

        while (std::getline(file, line)) {
    715c:	48 8b 08             	mov    (%rax),%rcx
    715f:	48 8b 49 e8          	mov    -0x18(%rcx),%rcx
      { return (this->rdstate() & (badbit | failbit)) != 0; }
    7163:	f6 44 08 20 05       	testb  $0x5,0x20(%rax,%rcx,1)
    7168:	0f 85 3f 04 00 00    	jne    75ad <_ZN5utils12load_datasetERKNSt7__cxx1112basic_stringIcSt11char_traitsIcESaIcEEE+0x61d>
    716e:	0f 57 c0             	xorps  %xmm0,%xmm0
    7171:	0f 29 04 24          	movaps %xmm0,(%rsp)
    7175:	48 c7 44 24 10 00 00 	movq   $0x0,0x10(%rsp)
    717c:	00 00 
            std::vector<float> row;
            std::stringstream  ss(line);
    717e:	4c 89 f7             	mov    %r14,%rdi
    7181:	48 8d 74 24 78       	lea    0x78(%rsp),%rsi
    7186:	ba 18 00 00 00       	mov    $0x18,%edx
    718b:	e8 60 05 01 00       	callq  176f0 <_ZNSt7__cxx1118basic_stringstreamIcSt11char_traitsIcESaIcEEC1ERKNS_12basic_stringIcS2_S3_EESt13_Ios_Openmode@plt>
	: allocator_type(std::move(__a)), _M_p(__dat) { }
    7190:	48 8d 84 24 a8 00 00 	lea    0xa8(%rsp),%rax
    7197:	00 
    7198:	48 89 84 24 98 00 00 	mov    %rax,0x98(%rsp)
    719f:	00 
      { _M_string_length = __length; }
    71a0:	48 c7 84 24 a0 00 00 	movq   $0x0,0xa0(%rsp)
    71a7:	00 00 00 00 00 
    71ac:	c6 84 24 a8 00 00 00 	movb   $0x0,0xa8(%rsp)
    71b3:	00 
    71b4:	48 89 5c 24 20       	mov    %rbx,0x20(%rsp)
    71b9:	eb 13                	jmp    71ce <_ZN5utils12load_datasetERKNSt7__cxx1112basic_stringIcSt11char_traitsIcESaIcEEE+0x23e>
    71bb:	0f 1f 44 00 00       	nopl   0x0(%rax,%rax,1)
#if __cplusplus >= 201103L
      template<typename _Up, typename... _Args>
	void
	construct(_Up* __p, _Args&&... __args)
	noexcept(std::is_nothrow_constructible<_Up, _Args...>::value)
	{ ::new((void *)__p) _Up(std::forward<_Args>(__args)...); }
    71c0:	f3 0f 11 45 00       	movss  %xmm0,0x0(%rbp)
	if (this->_M_impl._M_finish != this->_M_impl._M_end_of_storage)
	  {
	    _GLIBCXX_ASAN_ANNOTATE_GROW(1);
	    _Alloc_traits::construct(this->_M_impl, this->_M_impl._M_finish,
				     std::forward<_Args>(__args)...);
	    ++this->_M_impl._M_finish;
    71c5:	48 83 c5 04          	add    $0x4,%rbp
    71c9:	48 89 6c 24 08       	mov    %rbp,0x8(%rsp)
            std::string        value;

            while (std::getline(ss, value, ',')) {
    71ce:	4c 89 f7             	mov    %r14,%rdi
    71d1:	48 8d b4 24 98 00 00 	lea    0x98(%rsp),%rsi
    71d8:	00 
    71d9:	ba 2c 00 00 00       	mov    $0x2c,%edx
    71de:	e8 6d 04 01 00       	callq  17650 <_ZSt7getlineIcSt11char_traitsIcESaIcEERSt13basic_istreamIT_T0_ES7_RNSt7__cxx1112basic_stringIS4_S5_T1_EES4_@plt>
    71e3:	48 8b 08             	mov    (%rax),%rcx
    71e6:	48 8b 49 e8          	mov    -0x18(%rcx),%rcx
    71ea:	f6 44 08 20 05       	testb  $0x5,0x20(%rax,%rcx,1)
    71ef:	0f 85 1b 01 00 00    	jne    7310 <_ZN5utils12load_datasetERKNSt7__cxx1112basic_stringIcSt11char_traitsIcESaIcEEE+0x380>
      { return _M_dataplus._M_p; }
    71f5:	4c 8b a4 24 98 00 00 	mov    0x98(%rsp),%r12
    71fc:	00 
      _Ret __ret;

      _CharT* __endptr;

      struct _Save_errno {
	_Save_errno() : _M_errno(errno) { errno = 0; }
    71fd:	e8 3e 07 01 00       	callq  17940 <__errno_location@plt>
    7202:	49 89 c5             	mov    %rax,%r13
    7205:	8b 28                	mov    (%rax),%ebp
    7207:	c7 00 00 00 00 00    	movl   $0x0,(%rax)
	    return __val < _TRet(__numeric_traits<int>::__min)
	      || __val > _TRet(__numeric_traits<int>::__max);
	  }
      };

      const _TRet __tmp = __convf(__str, &__endptr, __base...);
    720d:	4c 89 e7             	mov    %r12,%rdi
    7210:	48 8d b4 24 f0 00 00 	lea    0xf0(%rsp),%rsi
    7217:	00 
    7218:	e8 33 07 01 00       	callq  17950 <strtof@plt>

      if (__endptr == __str)
    721d:	4c 39 a4 24 f0 00 00 	cmp    %r12,0xf0(%rsp)
    7224:	00 
    7225:	0f 84 39 04 00 00    	je     7664 <_ZN5utils12load_datasetERKNSt7__cxx1112basic_stringIcSt11char_traitsIcESaIcEEE+0x6d4>
	std::__throw_invalid_argument(__name);
      else if (errno == ERANGE
    722b:	41 8b 45 00          	mov    0x0(%r13),%eax
	  || _Range_chk::_S_chk(__tmp, std::is_same<_Ret, int>{}))
    722f:	85 c0                	test   %eax,%eax
    7231:	74 0d                	je     7240 <_ZN5utils12load_datasetERKNSt7__cxx1112basic_stringIcSt11char_traitsIcESaIcEEE+0x2b0>
    7233:	83 f8 22             	cmp    $0x22,%eax
    7236:	75 0c                	jne    7244 <_ZN5utils12load_datasetERKNSt7__cxx1112basic_stringIcSt11char_traitsIcESaIcEEE+0x2b4>
    7238:	e9 33 04 00 00       	jmpq   7670 <_ZN5utils12load_datasetERKNSt7__cxx1112basic_stringIcSt11char_traitsIcESaIcEEE+0x6e0>
    723d:	0f 1f 00             	nopl   (%rax)
	~_Save_errno() { if (errno == 0) errno = _M_errno; }
    7240:	41 89 6d 00          	mov    %ebp,0x0(%r13)
	if (this->_M_impl._M_finish != this->_M_impl._M_end_of_storage)
    7244:	48 8b 6c 24 08       	mov    0x8(%rsp),%rbp
    7249:	48 3b 6c 24 10       	cmp    0x10(%rsp),%rbp
    724e:	0f 85 6c ff ff ff    	jne    71c0 <_ZN5utils12load_datasetERKNSt7__cxx1112basic_stringIcSt11char_traitsIcESaIcEEE+0x230>

      // [23.2.4.2] capacity
      /**  Returns the number of elements in the %vector.  */
      size_type
      size() const _GLIBCXX_NOEXCEPT
      { return size_type(this->_M_impl._M_finish - this->_M_impl._M_start); }
    7254:	4c 8b 2c 24          	mov    (%rsp),%r13
    7258:	4c 29 ed             	sub    %r13,%rbp

      // Called by _M_fill_insert, _M_insert_aux etc.
      size_type
      _M_check_len(size_type __n, const char* __s) const
      {
	if (max_size() - size() < __n)
    725b:	48 b8 fc ff ff ff ff 	movabs $0x7ffffffffffffffc,%rax
    7262:	ff ff 7f 
    7265:	48 39 c5             	cmp    %rax,%rbp
    7268:	0f 84 0e 04 00 00    	je     767c <_ZN5utils12load_datasetERKNSt7__cxx1112basic_stringIcSt11char_traitsIcESaIcEEE+0x6ec>
      { return size_type(this->_M_impl._M_finish - this->_M_impl._M_start); }
    726e:	48 89 eb             	mov    %rbp,%rbx
    7271:	48 c1 fb 02          	sar    $0x2,%rbx
	  __throw_length_error(__N(__s));

	const size_type __len = size() + (std::max)(size(), __n);
    7275:	48 83 fb 01          	cmp    $0x1,%rbx
    7279:	48 89 d8             	mov    %rbx,%rax
    727c:	48 83 d0 00          	adc    $0x0,%rax
    7280:	4c 8d 34 18          	lea    (%rax,%rbx,1),%r14
    7284:	48 b9 ff ff ff ff ff 	movabs $0x1fffffffffffffff,%rcx
    728b:	ff ff 1f 
	return (__len < size() || __len > max_size()) ? max_size() : __len;
    728e:	49 39 ce             	cmp    %rcx,%r14
    7291:	4c 0f 43 f1          	cmovae %rcx,%r14
	const size_type __len = size() + (std::max)(size(), __n);
    7295:	48 01 d8             	add    %rbx,%rax
	return (__len < size() || __len > max_size()) ? max_size() : __len;
    7298:	4c 0f 42 f1          	cmovb  %rcx,%r14
	return __n != 0 ? _Tr::allocate(_M_impl, __n) : pointer();
    729c:	4d 85 f6             	test   %r14,%r14
    729f:	74 1e                	je     72bf <_ZN5utils12load_datasetERKNSt7__cxx1112basic_stringIcSt11char_traitsIcESaIcEEE+0x32f>
    72a1:	f3 0f 11 44 24 2c    	movss  %xmm0,0x2c(%rsp)
	return static_cast<_Tp*>(::operator new(__n * sizeof(_Tp)));
    72a7:	4a 8d 3c b5 00 00 00 	lea    0x0(,%r14,4),%rdi
    72ae:	00 
    72af:	e8 ac 04 01 00       	callq  17760 <_Znwm@plt>
    72b4:	49 89 c4             	mov    %rax,%r12
    72b7:	f3 0f 10 44 24 2c    	movss  0x2c(%rsp),%xmm0
    72bd:	eb 03                	jmp    72c2 <_ZN5utils12load_datasetERKNSt7__cxx1112basic_stringIcSt11char_traitsIcESaIcEEE+0x332>
    72bf:	45 31 e4             	xor    %r12d,%r12d
	{ ::new((void *)__p) _Up(std::forward<_Args>(__args)...); }
    72c2:	f3 41 0f 11 04 9c    	movss  %xmm0,(%r12,%rbx,4)
    inline __enable_if_t<std::__is_bitwise_relocatable<_Tp>::value, _Tp*>
    __relocate_a_1(_Tp* __first, _Tp* __last,
		   _Tp* __result, allocator<_Up>&) noexcept
    {
      ptrdiff_t __count = __last - __first;
      if (__count > 0)
    72c8:	48 85 ed             	test   %rbp,%rbp
    72cb:	7e 0e                	jle    72db <_ZN5utils12load_datasetERKNSt7__cxx1112basic_stringIcSt11char_traitsIcESaIcEEE+0x34b>
	__builtin_memmove(__result, __first, __count * sizeof(_Tp));
    72cd:	4c 89 e7             	mov    %r12,%rdi
    72d0:	4c 89 ee             	mov    %r13,%rsi
    72d3:	48 89 ea             	mov    %rbp,%rdx
    72d6:	e8 85 06 01 00       	callq  17960 <memmove@plt>
	if (__p)
    72db:	4d 85 ed             	test   %r13,%r13
    72de:	74 08                	je     72e8 <_ZN5utils12load_datasetERKNSt7__cxx1112basic_stringIcSt11char_traitsIcESaIcEEE+0x358>
	::operator delete(__p
    72e0:	4c 89 ef             	mov    %r13,%rdi
    72e3:	e8 d8 03 01 00       	callq  176c0 <_ZdlPv@plt>
    72e8:	49 8d 04 2c          	lea    (%r12,%rbp,1),%rax
    72ec:	48 83 c0 04          	add    $0x4,%rax
#endif
	std::_Destroy(__old_start, __old_finish, _M_get_Tp_allocator());
      _GLIBCXX_ASAN_ANNOTATE_REINIT;
      _M_deallocate(__old_start,
		    this->_M_impl._M_end_of_storage - __old_start);
      this->_M_impl._M_start = __new_start;
    72f0:	4c 89 24 24          	mov    %r12,(%rsp)
      this->_M_impl._M_finish = __new_finish;
    72f4:	48 89 44 24 08       	mov    %rax,0x8(%rsp)
      this->_M_impl._M_end_of_storage = __new_start + __len;
    72f9:	4b 8d 04 b4          	lea    (%r12,%r14,4),%rax
    72fd:	48 89 44 24 10       	mov    %rax,0x10(%rsp)
    7302:	4c 8d b4 24 f8 00 00 	lea    0xf8(%rsp),%r14
    7309:	00 
    730a:	e9 bf fe ff ff       	jmpq   71ce <_ZN5utils12load_datasetERKNSt7__cxx1112basic_stringIcSt11char_traitsIcESaIcEEE+0x23e>
    730f:	90                   	nop
      _GLIBCXX_CONSTEXPR __normal_iterator() _GLIBCXX_NOEXCEPT
      : _M_current(_Iterator()) { }

      explicit _GLIBCXX20_CONSTEXPR
      __normal_iterator(const _Iterator& __i) _GLIBCXX_NOEXCEPT
      : _M_current(__i) { }
    7310:	4c 8b 74 24 08       	mov    0x8(%rsp),%r14
    7315:	48 8b 6c 24 70       	mov    0x70(%rsp),%rbp
	if (this->_M_impl._M_finish != this->_M_impl._M_end_of_storage)
    731a:	49 39 ef             	cmp    %rbp,%r15
    731d:	74 21                	je     7340 <_ZN5utils12load_datasetERKNSt7__cxx1112basic_stringIcSt11char_traitsIcESaIcEEE+0x3b0>
	{ ::new((void *)__p) _Up(std::forward<_Args>(__args)...); }
    731f:	f3 41 0f 10 46 fc    	movss  -0x4(%r14),%xmm0
    7325:	f3 41 0f 11 07       	movss  %xmm0,(%r15)
	    ++this->_M_impl._M_finish;
    732a:	49 83 c7 04          	add    $0x4,%r15
    732e:	4c 89 7c 24 58       	mov    %r15,0x58(%rsp)
    7333:	4c 8b 74 24 20       	mov    0x20(%rsp),%r14
    7338:	e9 bf 00 00 00       	jmpq   73fc <_ZN5utils12load_datasetERKNSt7__cxx1112basic_stringIcSt11char_traitsIcESaIcEEE+0x46c>
    733d:	0f 1f 00             	nopl   (%rax)
      { return size_type(this->_M_impl._M_finish - this->_M_impl._M_start); }
    7340:	48 2b 6c 24 20       	sub    0x20(%rsp),%rbp
	if (max_size() - size() < __n)
    7345:	48 b8 fc ff ff ff ff 	movabs $0x7ffffffffffffffc,%rax
    734c:	ff ff 7f 
    734f:	48 39 c5             	cmp    %rax,%rbp
    7352:	0f 84 3a 03 00 00    	je     7692 <_ZN5utils12load_datasetERKNSt7__cxx1112basic_stringIcSt11char_traitsIcESaIcEEE+0x702>
    7358:	48 89 eb             	mov    %rbp,%rbx
      { return size_type(this->_M_impl._M_finish - this->_M_impl._M_start); }
    735b:	48 c1 fd 02          	sar    $0x2,%rbp
	const size_type __len = size() + (std::max)(size(), __n);
    735f:	48 83 fd 01          	cmp    $0x1,%rbp
    7363:	48 89 e8             	mov    %rbp,%rax
    7366:	48 83 d0 00          	adc    $0x0,%rax
    736a:	4c 8d 24 28          	lea    (%rax,%rbp,1),%r12
    736e:	48 b9 ff ff ff ff ff 	movabs $0x1fffffffffffffff,%rcx
    7375:	ff ff 1f 
	return (__len < size() || __len > max_size()) ? max_size() : __len;
    7378:	49 39 cc             	cmp    %rcx,%r12
    737b:	4c 0f 43 e1          	cmovae %rcx,%r12
	const size_type __len = size() + (std::max)(size(), __n);
    737f:	48 01 e8             	add    %rbp,%rax
	return (__len < size() || __len > max_size()) ? max_size() : __len;
    7382:	4c 0f 42 e1          	cmovb  %rcx,%r12
	return __n != 0 ? _Tr::allocate(_M_impl, __n) : pointer();
    7386:	4d 85 e4             	test   %r12,%r12
    7389:	74 12                	je     739d <_ZN5utils12load_datasetERKNSt7__cxx1112basic_stringIcSt11char_traitsIcESaIcEEE+0x40d>
	return static_cast<_Tp*>(::operator new(__n * sizeof(_Tp)));
    738b:	4a 8d 3c a5 00 00 00 	lea    0x0(,%r12,4),%rdi
    7392:	00 
    7393:	e8 c8 03 01 00       	callq  17760 <_Znwm@plt>
    7398:	49 89 c5             	mov    %rax,%r13
    739b:	eb 03                	jmp    73a0 <_ZN5utils12load_datasetERKNSt7__cxx1112basic_stringIcSt11char_traitsIcESaIcEEE+0x410>
    739d:	45 31 ed             	xor    %r13d,%r13d
	{ ::new((void *)__p) _Up(std::forward<_Args>(__args)...); }
    73a0:	f3 41 0f 10 46 fc    	movss  -0x4(%r14),%xmm0
    73a6:	f3 41 0f 11 44 ad 00 	movss  %xmm0,0x0(%r13,%rbp,4)
    73ad:	49 89 de             	mov    %rbx,%r14
      if (__count > 0)
    73b0:	48 85 db             	test   %rbx,%rbx
    73b3:	48 8b 5c 24 20       	mov    0x20(%rsp),%rbx
    73b8:	7e 0e                	jle    73c8 <_ZN5utils12load_datasetERKNSt7__cxx1112basic_stringIcSt11char_traitsIcESaIcEEE+0x438>
	__builtin_memmove(__result, __first, __count * sizeof(_Tp));
    73ba:	4c 89 ef             	mov    %r13,%rdi
    73bd:	48 89 de             	mov    %rbx,%rsi
    73c0:	4c 89 f2             	mov    %r14,%rdx
    73c3:	e8 98 05 01 00       	callq  17960 <memmove@plt>
	if (__p)
    73c8:	48 85 db             	test   %rbx,%rbx
    73cb:	74 08                	je     73d5 <_ZN5utils12load_datasetERKNSt7__cxx1112basic_stringIcSt11char_traitsIcESaIcEEE+0x445>
	::operator delete(__p
    73cd:	48 89 df             	mov    %rbx,%rdi
    73d0:	e8 eb 02 01 00       	callq  176c0 <_ZdlPv@plt>
    73d5:	4f 8d 3c 2e          	lea    (%r14,%r13,1),%r15
    73d9:	49 83 c7 04          	add    $0x4,%r15
      this->_M_impl._M_start = __new_start;
    73dd:	4c 89 6c 24 50       	mov    %r13,0x50(%rsp)
      this->_M_impl._M_finish = __new_finish;
    73e2:	4c 89 7c 24 58       	mov    %r15,0x58(%rsp)
      this->_M_impl._M_end_of_storage = __new_start + __len;
    73e7:	4b 8d 4c a5 00       	lea    0x0(%r13,%r12,4),%rcx
    73ec:	48 89 c8             	mov    %rcx,%rax
    73ef:	48 89 4c 24 70       	mov    %rcx,0x70(%rsp)
    73f4:	48 89 4c 24 60       	mov    %rcx,0x60(%rsp)
    73f9:	4d 89 ee             	mov    %r13,%r14
	--this->_M_impl._M_finish;
    73fc:	48 8b 7c 24 08       	mov    0x8(%rsp),%rdi
    7401:	48 83 c7 fc          	add    $0xfffffffffffffffc,%rdi
    7405:	48 89 7c 24 08       	mov    %rdi,0x8(%rsp)
	if (this->_M_impl._M_finish != this->_M_impl._M_end_of_storage)
    740a:	48 8b 6c 24 38       	mov    0x38(%rsp),%rbp
    740f:	48 3b 6c 24 40       	cmp    0x40(%rsp),%rbp
    7414:	74 4a                	je     7460 <_ZN5utils12load_datasetERKNSt7__cxx1112basic_stringIcSt11char_traitsIcESaIcEEE+0x4d0>
	return __n != 0 ? _Tr::allocate(_M_impl, __n) : pointer();
    7416:	48 8b 04 24          	mov    (%rsp),%rax
    741a:	48 89 fb             	mov    %rdi,%rbx
    741d:	48 29 c3             	sub    %rax,%rbx
      { return size_type(this->_M_impl._M_finish - this->_M_impl._M_start); }
    7420:	48 c1 fb 02          	sar    $0x2,%rbx
	: _M_start(), _M_finish(), _M_end_of_storage()
    7424:	0f 57 c0             	xorps  %xmm0,%xmm0
    7427:	0f 11 45 00          	movups %xmm0,0x0(%rbp)
    742b:	48 c7 45 10 00 00 00 	movq   $0x0,0x10(%rbp)
    7432:	00 
	return __n != 0 ? _Tr::allocate(_M_impl, __n) : pointer();
    7433:	48 29 c7             	sub    %rax,%rdi
    7436:	74 48                	je     7480 <_ZN5utils12load_datasetERKNSt7__cxx1112basic_stringIcSt11char_traitsIcESaIcEEE+0x4f0>
	if (__n > this->_M_max_size())
    7438:	48 b8 ff ff ff ff ff 	movabs $0x1fffffffffffffff,%rax
    743f:	ff ff 1f 
    7442:	48 39 c3             	cmp    %rax,%rbx
    7445:	0f 87 42 02 00 00    	ja     768d <_ZN5utils12load_datasetERKNSt7__cxx1112basic_stringIcSt11char_traitsIcESaIcEEE+0x6fd>
	return static_cast<_Tp*>(::operator new(__n * sizeof(_Tp)));
    744b:	e8 10 03 01 00       	callq  17760 <_Znwm@plt>
    7450:	49 89 c4             	mov    %rax,%r12
    7453:	eb 2e                	jmp    7483 <_ZN5utils12load_datasetERKNSt7__cxx1112basic_stringIcSt11char_traitsIcESaIcEEE+0x4f3>
    7455:	66 66 2e 0f 1f 84 00 	data16 nopw %cs:0x0(%rax,%rax,1)
    745c:	00 00 00 00 
	  _M_realloc_insert(end(), __x);
    7460:	48 8d 7c 24 30       	lea    0x30(%rsp),%rdi
    7465:	48 89 ee             	mov    %rbp,%rsi
    7468:	48 89 e2             	mov    %rsp,%rdx
    746b:	e8 20 54 00 00       	callq  c890 <_ZNSt6vectorIS_IfSaIfEESaIS1_EE17_M_realloc_insertIJRKS1_EEEvN9__gnu_cxx17__normal_iteratorIPS1_S3_EEDpOT_>
    7470:	eb 47                	jmp    74b9 <_ZN5utils12load_datasetERKNSt7__cxx1112basic_stringIcSt11char_traitsIcESaIcEEE+0x529>
    7472:	66 66 66 66 66 2e 0f 	data16 data16 data16 data16 nopw %cs:0x0(%rax,%rax,1)
    7479:	1f 84 00 00 00 00 00 
    7480:	45 31 e4             	xor    %r12d,%r12d
	this->_M_impl._M_start = this->_M_allocate(__n);
    7483:	4c 89 65 00          	mov    %r12,0x0(%rbp)
	this->_M_impl._M_finish = this->_M_impl._M_start;
    7487:	4c 89 65 08          	mov    %r12,0x8(%rbp)
	this->_M_impl._M_end_of_storage = this->_M_impl._M_start + __n;
    748b:	49 8d 04 9c          	lea    (%r12,%rbx,4),%rax
    748f:	48 89 45 10          	mov    %rax,0x10(%rbp)
    7493:	48 8b 34 24          	mov    (%rsp),%rsi
    7497:	4c 8b 6c 24 08       	mov    0x8(%rsp),%r13
					   is_copy_assignable<_Tp>>;
	  // trivial types can have deleted assignment
	  static_assert( __assignable::type::value, "type is not assignable" );
#endif
	  const ptrdiff_t _Num = __last - __first;
	  if (_Num)
    749c:	49 29 f5             	sub    %rsi,%r13
    749f:	74 0b                	je     74ac <_ZN5utils12load_datasetERKNSt7__cxx1112basic_stringIcSt11char_traitsIcESaIcEEE+0x51c>
	    __builtin_memmove(__result, __first, sizeof(_Tp) * _Num);
    74a1:	4c 89 e7             	mov    %r12,%rdi
    74a4:	4c 89 ea             	mov    %r13,%rdx
    74a7:	e8 b4 04 01 00       	callq  17960 <memmove@plt>
	  return __result + _Num;
    74ac:	4d 01 ec             	add    %r13,%r12
	this->_M_impl._M_finish =
    74af:	4c 89 65 08          	mov    %r12,0x8(%rbp)
	    ++this->_M_impl._M_finish;
    74b3:	48 83 44 24 38 18    	addq   $0x18,0x38(%rsp)
    74b9:	48 8b bc 24 98 00 00 	mov    0x98(%rsp),%rdi
    74c0:	00 
      { return _M_data() == _M_local_data(); }
    74c1:	48 8d 84 24 a8 00 00 	lea    0xa8(%rsp),%rax
    74c8:	00 
    74c9:	48 39 c7             	cmp    %rax,%rdi
	if (!_M_is_local())
    74cc:	74 05                	je     74d3 <_ZN5utils12load_datasetERKNSt7__cxx1112basic_stringIcSt11char_traitsIcESaIcEEE+0x543>
	::operator delete(__p
    74ce:	e8 ed 01 01 00       	callq  176c0 <_ZdlPv@plt>
    74d3:	48 8b 84 24 e8 00 00 	mov    0xe8(%rsp),%rax
    74da:	00 
       *
       *  The buffer is deallocated by the stringbuf object, not the
       *  formatting stream.
      */
      ~basic_stringstream()
      { }
    74db:	48 89 84 24 f8 00 00 	mov    %rax,0xf8(%rsp)
    74e2:	00 
    74e3:	48 8b 40 e8          	mov    -0x18(%rax),%rax
    74e7:	48 8b 8c 24 d8 00 00 	mov    0xd8(%rsp),%rcx
    74ee:	00 
    74ef:	48 89 8c 04 f8 00 00 	mov    %rcx,0xf8(%rsp,%rax,1)
    74f6:	00 
    74f7:	48 8b 84 24 d0 00 00 	mov    0xd0(%rsp),%rax
    74fe:	00 
    74ff:	48 89 84 24 08 01 00 	mov    %rax,0x108(%rsp)
    7506:	00 
    7507:	48 8b 84 24 c0 00 00 	mov    0xc0(%rsp),%rax
    750e:	00 
    }

  // Inhibit implicit instantiations for required instantiations,
  // which are defined via explicit instantiations elsewhere.
#if _GLIBCXX_EXTERN_TEMPLATE
  extern template class basic_stringbuf<char>;
    750f:	48 89 84 24 10 01 00 	mov    %rax,0x110(%rsp)
    7516:	00 
      { return _M_dataplus._M_p; }
    7517:	48 8b bc 24 58 01 00 	mov    0x158(%rsp),%rdi
    751e:	00 
      { return _M_data() == _M_local_data(); }
    751f:	48 8d 84 24 68 01 00 	lea    0x168(%rsp),%rax
    7526:	00 
    7527:	48 39 c7             	cmp    %rax,%rdi
    752a:	4c 89 f3             	mov    %r14,%rbx
	if (!_M_is_local())
    752d:	74 05                	je     7534 <_ZN5utils12load_datasetERKNSt7__cxx1112basic_stringIcSt11char_traitsIcESaIcEEE+0x5a4>
    752f:	e8 8c 01 01 00       	callq  176c0 <_ZdlPv@plt>
    7534:	48 8b 84 24 b8 00 00 	mov    0xb8(%rsp),%rax
    753b:	00 

  public:
      /// Destructor deallocates no buffer space.
      virtual
      ~basic_streambuf()
      { }
    753c:	48 89 84 24 10 01 00 	mov    %rax,0x110(%rsp)
    7543:	00 
    7544:	48 8d bc 24 48 01 00 	lea    0x148(%rsp),%rdi
    754b:	00 
    754c:	e8 0f 00 01 00       	callq  17560 <_ZNSt6localeD1Ev@plt>
    7551:	48 8b 84 24 e0 00 00 	mov    0xe0(%rsp),%rax
    7558:	00 
       *
       *  This does very little apart from providing a virtual base dtor.
      */
      virtual
      ~basic_istream()
      { _M_gcount = streamsize(0); }
    7559:	48 89 84 24 f8 00 00 	mov    %rax,0xf8(%rsp)
    7560:	00 
    7561:	48 8b 40 e8          	mov    -0x18(%rax),%rax
    7565:	48 8b 8c 24 c8 00 00 	mov    0xc8(%rsp),%rcx
    756c:	00 
    756d:	48 89 8c 04 f8 00 00 	mov    %rcx,0xf8(%rsp,%rax,1)
    7574:	00 
    7575:	48 c7 84 24 00 01 00 	movq   $0x0,0x100(%rsp)
    757c:	00 00 00 00 00 
    7581:	48 8d bc 24 78 01 00 	lea    0x178(%rsp),%rdi
    7588:	00 
    7589:	e8 12 00 01 00       	callq  175a0 <_ZNSt8ios_baseD2Ev@plt>
	_M_deallocate(_M_impl._M_start,
    758e:	48 8b 3c 24          	mov    (%rsp),%rdi
	if (__p)
    7592:	48 85 ff             	test   %rdi,%rdi
    7595:	4c 8d b4 24 f8 00 00 	lea    0xf8(%rsp),%r14
    759c:	00 
    759d:	0f 84 5d fb ff ff    	je     7100 <_ZN5utils12load_datasetERKNSt7__cxx1112basic_stringIcSt11char_traitsIcESaIcEEE+0x170>
    75a3:	e8 18 01 01 00       	callq  176c0 <_ZdlPv@plt>
    75a8:	e9 53 fb ff ff       	jmpq   7100 <_ZN5utils12load_datasetERKNSt7__cxx1112basic_stringIcSt11char_traitsIcESaIcEEE+0x170>
    75ad:	48 8d 74 24 30       	lea    0x30(%rsp),%rsi
    75b2:	48 8d 54 24 50       	lea    0x50(%rsp),%rdx
    75b7:	48 8b 7c 24 68       	mov    0x68(%rsp),%rdi
            y.push_back(row.back());
            row.pop_back();
            X.push_back(row);
        }

        return {X, y};
    75bc:	e8 2f 51 00 00       	callq  c6f0 <_ZNSt4pairISt6vectorIS0_IfSaIfEESaIS2_EES2_EC2IRS4_RS2_TnNSt9enable_ifIXaaclsr5_PCCPE22_MoveConstructiblePairIT_T0_EEclsr5_PCCPE30_ImplicitlyMoveConvertiblePairISA_SB_EEEbE4typeELb1EEEOSA_OSB_>
      { return _M_dataplus._M_p; }
    75c1:	48 8b 7c 24 78       	mov    0x78(%rsp),%rdi
      { return _M_data() == _M_local_data(); }
    75c6:	48 8d 84 24 88 00 00 	lea    0x88(%rsp),%rax
    75cd:	00 
    75ce:	48 39 c7             	cmp    %rax,%rdi
	if (!_M_is_local())
    75d1:	74 05                	je     75d8 <_ZN5utils12load_datasetERKNSt7__cxx1112basic_stringIcSt11char_traitsIcESaIcEEE+0x648>
    75d3:	e8 e8 00 01 00       	callq  176c0 <_ZdlPv@plt>
       *
       *  The file is closed by the filebuf object, not the formatting
       *  stream.
       */
      ~basic_ifstream()
      { }
    75d8:	48 8b 35 b9 17 01 00 	mov    0x117b9(%rip),%rsi        # 18d98 <_ZTTSt14basic_ifstreamIcSt11char_traitsIcEE@GLIBCXX_3.4>
    75df:	48 8d bc 24 80 02 00 	lea    0x280(%rsp),%rdi
    75e6:	00 
    75e7:	e8 14 00 01 00       	callq  17600 <_ZNSt14basic_ifstreamIcSt11char_traitsIcEED2Ev@plt>
    75ec:	48 8d bc 24 80 03 00 	lea    0x380(%rsp),%rdi
    75f3:	00 
    75f4:	e8 a7 ff 00 00       	callq  175a0 <_ZNSt8ios_baseD2Ev@plt>
	_M_deallocate(_M_impl._M_start,
    75f9:	48 8b 7c 24 50       	mov    0x50(%rsp),%rdi
	if (__p)
    75fe:	48 85 ff             	test   %rdi,%rdi
    7601:	74 05                	je     7608 <_ZN5utils12load_datasetERKNSt7__cxx1112basic_stringIcSt11char_traitsIcESaIcEEE+0x678>
    7603:	e8 b8 00 01 00       	callq  176c0 <_ZdlPv@plt>
	std::_Destroy(this->_M_impl._M_start, this->_M_impl._M_finish,
    7608:	48 8b 5c 24 30       	mov    0x30(%rsp),%rbx
    760d:	4c 8b 74 24 38       	mov    0x38(%rsp),%r14
    {
      template<typename _ForwardIterator>
	static _GLIBCXX20_CONSTEXPR void
	__destroy(_ForwardIterator __first, _ForwardIterator __last)
	{
	  for (; __first != __last; ++__first)
    7612:	4c 39 f3             	cmp    %r14,%rbx
    7615:	75 32                	jne    7649 <_ZN5utils12load_datasetERKNSt7__cxx1112basic_stringIcSt11char_traitsIcESaIcEEE+0x6b9>
	if (__p)
    7617:	48 85 db             	test   %rbx,%rbx
    761a:	74 08                	je     7624 <_ZN5utils12load_datasetERKNSt7__cxx1112basic_stringIcSt11char_traitsIcESaIcEEE+0x694>
    761c:	48 89 df             	mov    %rbx,%rdi
    761f:	e8 9c 00 01 00       	callq  176c0 <_ZdlPv@plt>
    7624:	48 8b 44 24 68       	mov    0x68(%rsp),%rax
    }
    7629:	48 81 c4 88 04 00 00 	add    $0x488,%rsp
    7630:	5b                   	pop    %rbx
    7631:	41 5c                	pop    %r12
    7633:	41 5d                	pop    %r13
    7635:	41 5e                	pop    %r14
    7637:	41 5f                	pop    %r15
    7639:	5d                   	pop    %rbp
    763a:	c3                   	retq   
    763b:	0f 1f 44 00 00       	nopl   0x0(%rax,%rax,1)
    7640:	48 83 c3 18          	add    $0x18,%rbx
    7644:	4c 39 f3             	cmp    %r14,%rbx
    7647:	74 0f                	je     7658 <_ZN5utils12load_datasetERKNSt7__cxx1112basic_stringIcSt11char_traitsIcESaIcEEE+0x6c8>
	_M_deallocate(_M_impl._M_start,
    7649:	48 8b 3b             	mov    (%rbx),%rdi
	if (__p)
    764c:	48 85 ff             	test   %rdi,%rdi
    764f:	74 ef                	je     7640 <_ZN5utils12load_datasetERKNSt7__cxx1112basic_stringIcSt11char_traitsIcESaIcEEE+0x6b0>
    7651:	e8 6a 00 01 00       	callq  176c0 <_ZdlPv@plt>
    7656:	eb e8                	jmp    7640 <_ZN5utils12load_datasetERKNSt7__cxx1112basic_stringIcSt11char_traitsIcESaIcEEE+0x6b0>
	_M_deallocate(_M_impl._M_start,
    7658:	48 8b 5c 24 30       	mov    0x30(%rsp),%rbx
	if (__p)
    765d:	48 85 db             	test   %rbx,%rbx
    7660:	75 ba                	jne    761c <_ZN5utils12load_datasetERKNSt7__cxx1112basic_stringIcSt11char_traitsIcESaIcEEE+0x68c>
    7662:	eb c0                	jmp    7624 <_ZN5utils12load_datasetERKNSt7__cxx1112basic_stringIcSt11char_traitsIcESaIcEEE+0x694>
	std::__throw_invalid_argument(__name);
    7664:	48 8d 3d 6b b4 ff ff 	lea    -0x4b95(%rip),%rdi        # 2ad6 <_IO_stdin_used+0x3e6>
    766b:	e8 b0 ff 00 00       	callq  17620 <_ZSt24__throw_invalid_argumentPKc@plt>
	std::__throw_out_of_range(__name);
    7670:	48 8d 3d 5f b4 ff ff 	lea    -0x4ba1(%rip),%rdi        # 2ad6 <_IO_stdin_used+0x3e6>
    7677:	e8 34 01 01 00       	callq  177b0 <_ZSt20__throw_out_of_rangePKc@plt>
	  __throw_length_error(__N(__s));
    767c:	48 8d 3d 2f b4 ff ff 	lea    -0x4bd1(%rip),%rdi        # 2ab2 <_IO_stdin_used+0x3c2>
    7683:	e8 e8 fe 00 00       	callq  17570 <_ZSt20__throw_length_errorPKc@plt>
	__throw_bad_cast();
    7688:	e8 43 00 01 00       	callq  176d0 <_ZSt16__throw_bad_castv@plt>
	  std::__throw_bad_alloc();
    768d:	e8 0e 00 01 00       	callq  176a0 <_ZSt17__throw_bad_allocv@plt>
    7692:	48 8d 3d 19 b4 ff ff 	lea    -0x4be7(%rip),%rdi        # 2ab2 <_IO_stdin_used+0x3c2>
    7699:	e8 d2 fe 00 00       	callq  17570 <_ZSt20__throw_length_errorPKc@plt>
            throw std::runtime_error("Failed to open file: " + filename);
    769e:	bf 10 00 00 00       	mov    $0x10,%edi
    76a3:	e8 38 00 01 00       	callq  176e0 <__cxa_allocate_exception@plt>
    76a8:	49 89 c6             	mov    %rax,%r14
    76ab:	48 8d 35 f9 b2 ff ff 	lea    -0x4d07(%rip),%rsi        # 29ab <_IO_stdin_used+0x2bb>
    76b2:	48 8d bc 24 f8 00 00 	lea    0xf8(%rsp),%rdi
    76b9:	00 
    76ba:	48 89 da             	mov    %rbx,%rdx
    76bd:	e8 8e 4f 00 00       	callq  c650 <_ZStplIcSt11char_traitsIcESaIcEENSt7__cxx1112basic_stringIT_T0_T1_EEPKS5_RKS8_>
    76c2:	40 b5 01             	mov    $0x1,%bpl
    76c5:	48 8d b4 24 f8 00 00 	lea    0xf8(%rsp),%rsi
    76cc:	00 
    76cd:	4c 89 f7             	mov    %r14,%rdi
    76d0:	e8 fb fe 00 00       	callq  175d0 <_ZNSt13runtime_errorC1ERKNSt7__cxx1112basic_stringIcSt11char_traitsIcESaIcEEE@plt>
    76d5:	31 ed                	xor    %ebp,%ebp
    76d7:	48 8b 35 ea 16 01 00 	mov    0x116ea(%rip),%rsi        # 18dc8 <_ZTISt13runtime_error@GLIBCXX_3.4>
    76de:	48 8b 15 f3 16 01 00 	mov    0x116f3(%rip),%rdx        # 18dd8 <_ZNSt13runtime_errorD1Ev@GLIBCXX_3.4>
    76e5:	4c 89 f7             	mov    %r14,%rdi
    76e8:	e8 a3 ff 00 00       	callq  17690 <__cxa_throw@plt>
    76ed:	48 89 c3             	mov    %rax,%rbx
      { return _M_dataplus._M_p; }
    76f0:	48 8b bc 24 f8 00 00 	mov    0xf8(%rsp),%rdi
    76f7:	00 
	return std::pointer_traits<const_pointer>::pointer_to(*_M_local_buf);
    76f8:	48 8d 84 24 08 01 00 	lea    0x108(%rsp),%rax
    76ff:	00 
      { return _M_data() == _M_local_data(); }
    7700:	48 39 c7             	cmp    %rax,%rdi
	if (!_M_is_local())
    7703:	74 05                	je     770a <_ZN5utils12load_datasetERKNSt7__cxx1112basic_stringIcSt11char_traitsIcESaIcEEE+0x77a>
	::operator delete(__p
    7705:	e8 b6 ff 00 00       	callq  176c0 <_ZdlPv@plt>
    770a:	40 84 ed             	test   %bpl,%bpl
    770d:	75 08                	jne    7717 <_ZN5utils12load_datasetERKNSt7__cxx1112basic_stringIcSt11char_traitsIcESaIcEEE+0x787>
    770f:	e9 88 00 00 00       	jmpq   779c <_ZN5utils12load_datasetERKNSt7__cxx1112basic_stringIcSt11char_traitsIcESaIcEEE+0x80c>
    7714:	48 89 c3             	mov    %rax,%rbx
    7717:	4c 89 f7             	mov    %r14,%rdi
    771a:	e8 d1 00 01 00       	callq  177f0 <__cxa_free_exception@plt>
    771f:	eb 7b                	jmp    779c <_ZN5utils12load_datasetERKNSt7__cxx1112basic_stringIcSt11char_traitsIcESaIcEEE+0x80c>
    7721:	48 89 c3             	mov    %rax,%rbx
    7724:	e9 a3 00 00 00       	jmpq   77cc <_ZN5utils12load_datasetERKNSt7__cxx1112basic_stringIcSt11char_traitsIcESaIcEEE+0x83c>
    7729:	eb 12                	jmp    773d <_ZN5utils12load_datasetERKNSt7__cxx1112basic_stringIcSt11char_traitsIcESaIcEEE+0x7ad>
    772b:	eb 10                	jmp    773d <_ZN5utils12load_datasetERKNSt7__cxx1112basic_stringIcSt11char_traitsIcESaIcEEE+0x7ad>
    772d:	48 89 c3             	mov    %rax,%rbx
    7730:	eb 45                	jmp    7777 <_ZN5utils12load_datasetERKNSt7__cxx1112basic_stringIcSt11char_traitsIcESaIcEEE+0x7e7>
    7732:	eb 00                	jmp    7734 <_ZN5utils12load_datasetERKNSt7__cxx1112basic_stringIcSt11char_traitsIcESaIcEEE+0x7a4>
    7734:	48 89 c3             	mov    %rax,%rbx
    7737:	eb 4c                	jmp    7785 <_ZN5utils12load_datasetERKNSt7__cxx1112basic_stringIcSt11char_traitsIcESaIcEEE+0x7f5>
    7739:	eb 02                	jmp    773d <_ZN5utils12load_datasetERKNSt7__cxx1112basic_stringIcSt11char_traitsIcESaIcEEE+0x7ad>
    773b:	eb 00                	jmp    773d <_ZN5utils12load_datasetERKNSt7__cxx1112basic_stringIcSt11char_traitsIcESaIcEEE+0x7ad>
    773d:	48 89 c3             	mov    %rax,%rbx
    7740:	eb 0e                	jmp    7750 <_ZN5utils12load_datasetERKNSt7__cxx1112basic_stringIcSt11char_traitsIcESaIcEEE+0x7c0>
    7742:	48 89 c3             	mov    %rax,%rbx
	~_Save_errno() { if (errno == 0) errno = _M_errno; }
    7745:	41 83 7d 00 00       	cmpl   $0x0,0x0(%r13)
    774a:	75 04                	jne    7750 <_ZN5utils12load_datasetERKNSt7__cxx1112basic_stringIcSt11char_traitsIcESaIcEEE+0x7c0>
    774c:	41 89 6d 00          	mov    %ebp,0x0(%r13)
      { return _M_dataplus._M_p; }
    7750:	48 8b bc 24 98 00 00 	mov    0x98(%rsp),%rdi
    7757:	00 
      { return _M_data() == _M_local_data(); }
    7758:	48 8d 84 24 a8 00 00 	lea    0xa8(%rsp),%rax
    775f:	00 
    7760:	48 39 c7             	cmp    %rax,%rdi
	if (!_M_is_local())
    7763:	74 05                	je     776a <_ZN5utils12load_datasetERKNSt7__cxx1112basic_stringIcSt11char_traitsIcESaIcEEE+0x7da>
    7765:	e8 56 ff 00 00       	callq  176c0 <_ZdlPv@plt>
    776a:	48 8d bc 24 f8 00 00 	lea    0xf8(%rsp),%rdi
    7771:	00 
        }
    7772:	e8 29 00 01 00       	callq  177a0 <_ZNSt7__cxx1118basic_stringstreamIcSt11char_traitsIcESaIcEED1Ev@plt>
	_M_deallocate(_M_impl._M_start,
    7777:	48 8b 3c 24          	mov    (%rsp),%rdi
	if (__p)
    777b:	48 85 ff             	test   %rdi,%rdi
    777e:	74 05                	je     7785 <_ZN5utils12load_datasetERKNSt7__cxx1112basic_stringIcSt11char_traitsIcESaIcEEE+0x7f5>
    7780:	e8 3b ff 00 00       	callq  176c0 <_ZdlPv@plt>
      { return _M_dataplus._M_p; }
    7785:	48 8b 7c 24 78       	mov    0x78(%rsp),%rdi
      { return _M_data() == _M_local_data(); }
    778a:	48 8d 84 24 88 00 00 	lea    0x88(%rsp),%rax
    7791:	00 
    7792:	48 39 c7             	cmp    %rax,%rdi
	if (!_M_is_local())
    7795:	74 05                	je     779c <_ZN5utils12load_datasetERKNSt7__cxx1112basic_stringIcSt11char_traitsIcESaIcEEE+0x80c>
    7797:	e8 24 ff 00 00       	callq  176c0 <_ZdlPv@plt>
    779c:	48 8b 35 f5 15 01 00 	mov    0x115f5(%rip),%rsi        # 18d98 <_ZTTSt14basic_ifstreamIcSt11char_traitsIcEE@GLIBCXX_3.4>
    77a3:	48 8d bc 24 80 02 00 	lea    0x280(%rsp),%rdi
    77aa:	00 
    77ab:	e8 50 fe 00 00       	callq  17600 <_ZNSt14basic_ifstreamIcSt11char_traitsIcEED2Ev@plt>
    77b0:	48 8d bc 24 80 03 00 	lea    0x380(%rsp),%rdi
    77b7:	00 
    77b8:	e8 e3 fd 00 00       	callq  175a0 <_ZNSt8ios_baseD2Ev@plt>
	_M_deallocate(_M_impl._M_start,
    77bd:	48 8b 7c 24 50       	mov    0x50(%rsp),%rdi
	if (__p)
    77c2:	48 85 ff             	test   %rdi,%rdi
    77c5:	74 05                	je     77cc <_ZN5utils12load_datasetERKNSt7__cxx1112basic_stringIcSt11char_traitsIcESaIcEEE+0x83c>
    77c7:	e8 f4 fe 00 00       	callq  176c0 <_ZdlPv@plt>
    77cc:	48 8d 7c 24 30       	lea    0x30(%rsp),%rdi
    }
    77d1:	e8 4a 50 00 00       	callq  c820 <_ZNSt6vectorIS_IfSaIfEESaIS1_EED2Ev>
    77d6:	48 89 df             	mov    %rbx,%rdi
    77d9:	e8 92 01 01 00       	callq  17970 <_Unwind_Resume@plt>
    77de:	66 90                	xchg   %ax,%ax

00000000000077e0 <_ZN5utils20flatten_column_majorERKSt6vectorIS0_IfSaIfEESaIS2_EE>:

    // Convert 2D vector to column-major vector
    std::vector<float> flatten_column_major(const std::vector<std::vector<float>>& data) {
    77e0:	55                   	push   %rbp
    77e1:	41 57                	push   %r15
    77e3:	41 56                	push   %r14
    77e5:	41 55                	push   %r13
    77e7:	41 54                	push   %r12
    77e9:	53                   	push   %rbx
    77ea:	48 83 ec 28          	sub    $0x28,%rsp
    77ee:	48 8b 06             	mov    (%rsi),%rax
    77f1:	48 8b 4e 08          	mov    0x8(%rsi),%rcx
    _GLIBCXX20_CONSTEXPR
    inline bool
    operator==(const __normal_iterator<_Iterator, _Container>& __lhs,
	       const __normal_iterator<_Iterator, _Container>& __rhs)
    _GLIBCXX_NOEXCEPT
    { return __lhs.base() == __rhs.base(); }
    77f5:	48 39 c8             	cmp    %rcx,%rax
        if (data.empty())
    77f8:	0f 84 8f 00 00 00    	je     788d <_ZN5utils20flatten_column_majorERKSt6vectorIS0_IfSaIfEESaIS2_EE+0xad>
    77fe:	48 89 7c 24 08       	mov    %rdi,0x8(%rsp)
      { return size_type(this->_M_impl._M_finish - this->_M_impl._M_start); }
    7803:	48 29 c1             	sub    %rax,%rcx
    7806:	48 c1 f9 03          	sar    $0x3,%rcx
    780a:	49 bd ab aa aa aa aa 	movabs $0xaaaaaaaaaaaaaaab,%r13
    7811:	aa aa aa 
    7814:	4c 0f af e9          	imul   %rcx,%r13
    7818:	48 8b 08             	mov    (%rax),%rcx
    781b:	48 8b 50 08          	mov    0x8(%rax),%rdx
    781f:	48 89 d5             	mov    %rdx,%rbp
    7822:	48 29 cd             	sub    %rcx,%rbp
    7825:	48 c1 fd 02          	sar    $0x2,%rbp
            return {};

        size_t             rows = data.size();
        size_t             cols = data[0].size();
        std::vector<float> flattened(rows * cols);
    7829:	49 89 ec             	mov    %rbp,%r12
    782c:	4d 0f af e5          	imul   %r13,%r12

      // Called by constructors to check initial size.
      static size_type
      _S_check_init_len(size_type __n, const allocator_type& __a)
      {
	if (__n > _S_max_size(_Tp_alloc_type(__a)))
    7830:	4c 89 e0             	mov    %r12,%rax
    7833:	48 c1 e8 3d          	shr    $0x3d,%rax
    7837:	0f 85 b2 01 00 00    	jne    79ef <_ZN5utils20flatten_column_majorERKSt6vectorIS0_IfSaIfEESaIS2_EE+0x20f>
    783d:	49 89 f7             	mov    %rsi,%r15
	return __n != 0 ? _Tr::allocate(_M_impl, __n) : pointer();
    7840:	4d 85 e4             	test   %r12,%r12
    7843:	74 5e                	je     78a3 <_ZN5utils20flatten_column_majorERKSt6vectorIS0_IfSaIfEESaIS2_EE+0xc3>
    7845:	48 89 54 24 10       	mov    %rdx,0x10(%rsp)
    784a:	48 89 4c 24 18       	mov    %rcx,0x18(%rsp)
	return static_cast<_Tp*>(::operator new(__n * sizeof(_Tp)));
    784f:	4a 8d 3c a5 00 00 00 	lea    0x0(,%r12,4),%rdi
    7856:	00 
    7857:	48 89 7c 24 20       	mov    %rdi,0x20(%rsp)
    785c:	e8 ff fe 00 00       	callq  17760 <_Znwm@plt>
    7861:	49 89 c6             	mov    %rax,%r14
    7864:	48 8b 44 24 08       	mov    0x8(%rsp),%rax
	this->_M_impl._M_start = this->_M_allocate(__n);
    7869:	4c 89 30             	mov    %r14,(%rax)
	this->_M_impl._M_end_of_storage = this->_M_impl._M_start + __n;
    786c:	4b 8d 1c a6          	lea    (%r14,%r12,4),%rbx
    7870:	48 89 58 10          	mov    %rbx,0x10(%rax)
    { ::new(static_cast<void*>(__p)) _Tp(std::forward<_Args>(__args)...); }
    7874:	41 c7 06 00 00 00 00 	movl   $0x0,(%r14)
	      ++__first;
    787b:	4c 89 f7             	mov    %r14,%rdi
    787e:	48 83 c7 04          	add    $0x4,%rdi
	       std::random_access_iterator_tag)
    {
#if __cplusplus >= 201103L
      static_assert(is_integral<_Size>{}, "fill_n must pass integral size");
#endif
      if (__n <= 0)
    7882:	49 83 fc 01          	cmp    $0x1,%r12
    7886:	75 35                	jne    78bd <_ZN5utils20flatten_column_majorERKSt6vectorIS0_IfSaIfEESaIS2_EE+0xdd>
    7888:	48 89 fb             	mov    %rdi,%rbx
    788b:	eb 40                	jmp    78cd <_ZN5utils20flatten_column_majorERKSt6vectorIS0_IfSaIfEESaIS2_EE+0xed>
	: _M_start(), _M_finish(), _M_end_of_storage()
    788d:	0f 57 c0             	xorps  %xmm0,%xmm0
    7890:	0f 11 07             	movups %xmm0,(%rdi)
    7893:	48 c7 47 10 00 00 00 	movq   $0x0,0x10(%rdi)
    789a:	00 
                flattened[j * rows + i] = data[i][j];
            }
        }

        return flattened;
    }
    789b:	48 89 f8             	mov    %rdi,%rax
    789e:	e9 3d 01 00 00       	jmpq   79e0 <_ZN5utils20flatten_column_majorERKSt6vectorIS0_IfSaIfEESaIS2_EE+0x200>
	this->_M_impl._M_finish = this->_M_impl._M_start;
    78a3:	0f 57 c0             	xorps  %xmm0,%xmm0
    78a6:	48 8b 44 24 08       	mov    0x8(%rsp),%rax
    78ab:	0f 11 00             	movups %xmm0,(%rax)
    78ae:	48 c7 40 10 00 00 00 	movq   $0x0,0x10(%rax)
    78b5:	00 
    78b6:	45 31 f6             	xor    %r14d,%r14d
    78b9:	31 db                	xor    %ebx,%ebx
    78bb:	eb 1f                	jmp    78dc <_ZN5utils20flatten_column_majorERKSt6vectorIS0_IfSaIfEESaIS2_EE+0xfc>
    78bd:	48 8b 54 24 20       	mov    0x20(%rsp),%rdx
      for (; __first != __last; ++__first)
    78c2:	48 83 c2 fc          	add    $0xfffffffffffffffc,%rdx
	*__first = __tmp;
    78c6:	31 f6                	xor    %esi,%esi
    78c8:	e8 c3 00 01 00       	callq  17990 <memset@plt>
    78cd:	48 8b 44 24 08       	mov    0x8(%rsp),%rax
    78d2:	48 8b 4c 24 18       	mov    0x18(%rsp),%rcx
    78d7:	48 8b 54 24 10       	mov    0x10(%rsp),%rdx
	this->_M_impl._M_finish =
    78dc:	48 89 58 08          	mov    %rbx,0x8(%rax)
        for (size_t j = 0; j < cols; ++j) {
    78e0:	48 39 ca             	cmp    %rcx,%rdx
    78e3:	0f 84 f7 00 00 00    	je     79e0 <_ZN5utils20flatten_column_majorERKSt6vectorIS0_IfSaIfEESaIS2_EE+0x200>
    78e9:	4d 8b 3f             	mov    (%r15),%r15
    78ec:	49 83 fd 01          	cmp    $0x1,%r13
    78f0:	4c 89 e9             	mov    %r13,%rcx
    78f3:	48 83 d1 00          	adc    $0x0,%rcx
    78f7:	48 83 fd 01          	cmp    $0x1,%rbp
    78fb:	48 83 d5 00          	adc    $0x0,%rbp
    78ff:	89 ca                	mov    %ecx,%edx
    7901:	83 e2 03             	and    $0x3,%edx
    7904:	48 83 e1 fc          	and    $0xfffffffffffffffc,%rcx
    7908:	49 8d 76 0c          	lea    0xc(%r14),%rsi
    790c:	4a 8d 3c ad 00 00 00 	lea    0x0(,%r13,4),%rdi
    7913:	00 
    7914:	45 31 c0             	xor    %r8d,%r8d
    7917:	eb 19                	jmp    7932 <_ZN5utils20flatten_column_majorERKSt6vectorIS0_IfSaIfEESaIS2_EE+0x152>
    7919:	0f 1f 80 00 00 00 00 	nopl   0x0(%rax)
    7920:	49 ff c0             	inc    %r8
    7923:	48 01 fe             	add    %rdi,%rsi
    7926:	49 01 fe             	add    %rdi,%r14
    7929:	49 39 e8             	cmp    %rbp,%r8
    792c:	0f 84 ae 00 00 00    	je     79e0 <_ZN5utils20flatten_column_majorERKSt6vectorIS0_IfSaIfEESaIS2_EE+0x200>
    7932:	49 83 fd 04          	cmp    $0x4,%r13
            for (size_t i = 0; i < rows; ++i) {
    7936:	73 08                	jae    7940 <_ZN5utils20flatten_column_majorERKSt6vectorIS0_IfSaIfEESaIS2_EE+0x160>
    7938:	45 31 c9             	xor    %r9d,%r9d
    793b:	eb 62                	jmp    799f <_ZN5utils20flatten_column_majorERKSt6vectorIS0_IfSaIfEESaIS2_EE+0x1bf>
    793d:	0f 1f 00             	nopl   (%rax)
    7940:	4d 89 fa             	mov    %r15,%r10
    7943:	45 31 c9             	xor    %r9d,%r9d
    7946:	66 2e 0f 1f 84 00 00 	nopw   %cs:0x0(%rax,%rax,1)
    794d:	00 00 00 
	return *(this->_M_impl._M_start + __n);
    7950:	4d 8b 1a             	mov    (%r10),%r11
                flattened[j * rows + i] = data[i][j];
    7953:	f3 43 0f 10 04 83    	movss  (%r11,%r8,4),%xmm0
    7959:	f3 42 0f 11 44 8e f4 	movss  %xmm0,-0xc(%rsi,%r9,4)
    7960:	4d 8b 5a 18          	mov    0x18(%r10),%r11
    7964:	f3 43 0f 10 04 83    	movss  (%r11,%r8,4),%xmm0
    796a:	f3 42 0f 11 44 8e f8 	movss  %xmm0,-0x8(%rsi,%r9,4)
    7971:	4d 8b 5a 30          	mov    0x30(%r10),%r11
    7975:	f3 43 0f 10 04 83    	movss  (%r11,%r8,4),%xmm0
    797b:	f3 42 0f 11 44 8e fc 	movss  %xmm0,-0x4(%rsi,%r9,4)
    7982:	4d 8b 5a 48          	mov    0x48(%r10),%r11
    7986:	f3 43 0f 10 04 83    	movss  (%r11,%r8,4),%xmm0
    798c:	f3 42 0f 11 04 8e    	movss  %xmm0,(%rsi,%r9,4)
            for (size_t i = 0; i < rows; ++i) {
    7992:	49 83 c1 04          	add    $0x4,%r9
    7996:	49 83 c2 60          	add    $0x60,%r10
    799a:	4c 39 c9             	cmp    %r9,%rcx
    799d:	75 b1                	jne    7950 <_ZN5utils20flatten_column_majorERKSt6vectorIS0_IfSaIfEESaIS2_EE+0x170>
    799f:	48 85 d2             	test   %rdx,%rdx
    79a2:	0f 84 78 ff ff ff    	je     7920 <_ZN5utils20flatten_column_majorERKSt6vectorIS0_IfSaIfEESaIS2_EE+0x140>
    79a8:	4f 8d 14 8e          	lea    (%r14,%r9,4),%r10
    79ac:	4f 8d 0c 49          	lea    (%r9,%r9,2),%r9
    79b0:	4f 8d 0c cf          	lea    (%r15,%r9,8),%r9
    79b4:	45 31 db             	xor    %r11d,%r11d
    79b7:	66 0f 1f 84 00 00 00 	nopw   0x0(%rax,%rax,1)
    79be:	00 00 
    79c0:	49 8b 19             	mov    (%r9),%rbx
                flattened[j * rows + i] = data[i][j];
    79c3:	f3 42 0f 10 04 83    	movss  (%rbx,%r8,4),%xmm0
    79c9:	f3 43 0f 11 04 9a    	movss  %xmm0,(%r10,%r11,4)
            for (size_t i = 0; i < rows; ++i) {
    79cf:	49 ff c3             	inc    %r11
    79d2:	49 83 c1 18          	add    $0x18,%r9
    79d6:	4c 39 da             	cmp    %r11,%rdx
    79d9:	75 e5                	jne    79c0 <_ZN5utils20flatten_column_majorERKSt6vectorIS0_IfSaIfEESaIS2_EE+0x1e0>
    79db:	e9 40 ff ff ff       	jmpq   7920 <_ZN5utils20flatten_column_majorERKSt6vectorIS0_IfSaIfEESaIS2_EE+0x140>
    }
    79e0:	48 83 c4 28          	add    $0x28,%rsp
    79e4:	5b                   	pop    %rbx
    79e5:	41 5c                	pop    %r12
    79e7:	41 5d                	pop    %r13
    79e9:	41 5e                	pop    %r14
    79eb:	41 5f                	pop    %r15
    79ed:	5d                   	pop    %rbp
    79ee:	c3                   	retq   
	  __throw_length_error(
    79ef:	48 8d 3d cd b3 ff ff 	lea    -0x4c33(%rip),%rdi        # 2dc3 <_IO_stdin_used+0x6d3>
    79f6:	e8 75 fb 00 00       	callq  17570 <_ZSt20__throw_length_errorPKc@plt>
    79fb:	0f 1f 44 00 00       	nopl   0x0(%rax,%rax,1)

0000000000007a00 <_ZN5utils18mean_squared_errorERKSt6vectorIfSaIfEES4_>:

        return {train, test};
    }

    // Calculate mean squared error
    float mean_squared_error(const std::vector<float>& y_true, const std::vector<float>& y_pred) {
    7a00:	41 56                	push   %r14
    7a02:	53                   	push   %rbx
    7a03:	50                   	push   %rax
      { return size_type(this->_M_impl._M_finish - this->_M_impl._M_start); }
    7a04:	48 8b 17             	mov    (%rdi),%rdx
    7a07:	48 8b 4f 08          	mov    0x8(%rdi),%rcx
    7a0b:	48 89 c8             	mov    %rcx,%rax
    7a0e:	48 29 d0             	sub    %rdx,%rax
    7a11:	48 8b 3e             	mov    (%rsi),%rdi
    7a14:	48 8b 76 08          	mov    0x8(%rsi),%rsi
    7a18:	48 29 fe             	sub    %rdi,%rsi
        if (y_true.size() != y_pred.size()) {
    7a1b:	48 39 f0             	cmp    %rsi,%rax
    7a1e:	0f 85 f9 00 00 00    	jne    7b1d <_ZN5utils18mean_squared_errorERKSt6vectorIfSaIfEES4_+0x11d>
    7a24:	48 c1 f8 02          	sar    $0x2,%rax
            throw std::runtime_error("Arrays must have the same length");
        }

        float sum = 0.0f;
        for (size_t i = 0; i < y_true.size(); ++i) {
    7a28:	48 39 d1             	cmp    %rdx,%rcx
    7a2b:	74 1e                	je     7a4b <_ZN5utils18mean_squared_errorERKSt6vectorIfSaIfEES4_+0x4b>
    7a2d:	48 83 f8 01          	cmp    $0x1,%rax
    7a31:	49 89 c0             	mov    %rax,%r8
    7a34:	49 83 d0 00          	adc    $0x0,%r8
    7a38:	44 89 c1             	mov    %r8d,%ecx
    7a3b:	83 e1 03             	and    $0x3,%ecx
    7a3e:	48 83 f8 04          	cmp    $0x4,%rax
    7a42:	73 0f                	jae    7a53 <_ZN5utils18mean_squared_errorERKSt6vectorIfSaIfEES4_+0x53>
    7a44:	0f 57 c0             	xorps  %xmm0,%xmm0
    7a47:	31 f6                	xor    %esi,%esi
    7a49:	eb 6c                	jmp    7ab7 <_ZN5utils18mean_squared_errorERKSt6vectorIfSaIfEES4_+0xb7>
    7a4b:	0f 57 c0             	xorps  %xmm0,%xmm0
    7a4e:	e9 97 00 00 00       	jmpq   7aea <_ZN5utils18mean_squared_errorERKSt6vectorIfSaIfEES4_+0xea>
    7a53:	49 83 e0 fc          	and    $0xfffffffffffffffc,%r8
    7a57:	0f 57 c0             	xorps  %xmm0,%xmm0
    7a5a:	31 f6                	xor    %esi,%esi
    7a5c:	0f 1f 40 00          	nopl   0x0(%rax)
            float diff = y_true[i] - y_pred[i];
    7a60:	f3 0f 10 0c b2       	movss  (%rdx,%rsi,4),%xmm1
    7a65:	f3 0f 10 54 b2 04    	movss  0x4(%rdx,%rsi,4),%xmm2
    7a6b:	f3 0f 5c 0c b7       	subss  (%rdi,%rsi,4),%xmm1
            sum += diff * diff;
    7a70:	f3 0f 59 c9          	mulss  %xmm1,%xmm1
    7a74:	f3 0f 58 c8          	addss  %xmm0,%xmm1
            float diff = y_true[i] - y_pred[i];
    7a78:	f3 0f 5c 54 b7 04    	subss  0x4(%rdi,%rsi,4),%xmm2
            sum += diff * diff;
    7a7e:	f3 0f 59 d2          	mulss  %xmm2,%xmm2
    7a82:	f3 0f 58 d1          	addss  %xmm1,%xmm2
            float diff = y_true[i] - y_pred[i];
    7a86:	f3 0f 10 4c b2 08    	movss  0x8(%rdx,%rsi,4),%xmm1
    7a8c:	f3 0f 5c 4c b7 08    	subss  0x8(%rdi,%rsi,4),%xmm1
            sum += diff * diff;
    7a92:	f3 0f 59 c9          	mulss  %xmm1,%xmm1
    7a96:	f3 0f 58 ca          	addss  %xmm2,%xmm1
            float diff = y_true[i] - y_pred[i];
    7a9a:	f3 0f 10 44 b2 0c    	movss  0xc(%rdx,%rsi,4),%xmm0
    7aa0:	f3 0f 5c 44 b7 0c    	subss  0xc(%rdi,%rsi,4),%xmm0
            sum += diff * diff;
    7aa6:	f3 0f 59 c0          	mulss  %xmm0,%xmm0
    7aaa:	f3 0f 58 c1          	addss  %xmm1,%xmm0
        for (size_t i = 0; i < y_true.size(); ++i) {
    7aae:	48 83 c6 04          	add    $0x4,%rsi
    7ab2:	49 39 f0             	cmp    %rsi,%r8
    7ab5:	75 a9                	jne    7a60 <_ZN5utils18mean_squared_errorERKSt6vectorIfSaIfEES4_+0x60>
    7ab7:	48 85 c9             	test   %rcx,%rcx
    7aba:	74 2e                	je     7aea <_ZN5utils18mean_squared_errorERKSt6vectorIfSaIfEES4_+0xea>
    7abc:	48 8d 3c b7          	lea    (%rdi,%rsi,4),%rdi
    7ac0:	48 8d 14 b2          	lea    (%rdx,%rsi,4),%rdx
    7ac4:	31 f6                	xor    %esi,%esi
    7ac6:	66 2e 0f 1f 84 00 00 	nopw   %cs:0x0(%rax,%rax,1)
    7acd:	00 00 00 
            float diff = y_true[i] - y_pred[i];
    7ad0:	f3 0f 10 0c b2       	movss  (%rdx,%rsi,4),%xmm1
    7ad5:	f3 0f 5c 0c b7       	subss  (%rdi,%rsi,4),%xmm1
            sum += diff * diff;
    7ada:	f3 0f 59 c9          	mulss  %xmm1,%xmm1
    7ade:	f3 0f 58 c1          	addss  %xmm1,%xmm0
        for (size_t i = 0; i < y_true.size(); ++i) {
    7ae2:	48 ff c6             	inc    %rsi
    7ae5:	48 39 f1             	cmp    %rsi,%rcx
    7ae8:	75 e6                	jne    7ad0 <_ZN5utils18mean_squared_errorERKSt6vectorIfSaIfEES4_+0xd0>
        }

        return sum / y_true.size();
    7aea:	48 85 c0             	test   %rax,%rax
    7aed:	78 0a                	js     7af9 <_ZN5utils18mean_squared_errorERKSt6vectorIfSaIfEES4_+0xf9>
    7aef:	0f 57 c9             	xorps  %xmm1,%xmm1
    7af2:	f3 48 0f 2a c8       	cvtsi2ss %rax,%xmm1
    7af7:	eb 18                	jmp    7b11 <_ZN5utils18mean_squared_errorERKSt6vectorIfSaIfEES4_+0x111>
    7af9:	48 89 c1             	mov    %rax,%rcx
    7afc:	48 d1 e9             	shr    %rcx
    7aff:	83 e0 01             	and    $0x1,%eax
    7b02:	48 09 c8             	or     %rcx,%rax
    7b05:	0f 57 c9             	xorps  %xmm1,%xmm1
    7b08:	f3 48 0f 2a c8       	cvtsi2ss %rax,%xmm1
    7b0d:	f3 0f 58 c9          	addss  %xmm1,%xmm1
    7b11:	f3 0f 5e c1          	divss  %xmm1,%xmm0
    7b15:	48 83 c4 08          	add    $0x8,%rsp
    7b19:	5b                   	pop    %rbx
    7b1a:	41 5e                	pop    %r14
    7b1c:	c3                   	retq   
            throw std::runtime_error("Arrays must have the same length");
    7b1d:	bf 10 00 00 00       	mov    $0x10,%edi
    7b22:	e8 b9 fb 00 00       	callq  176e0 <__cxa_allocate_exception@plt>
    7b27:	48 89 c3             	mov    %rax,%rbx
    7b2a:	48 8d 35 0c b0 ff ff 	lea    -0x4ff4(%rip),%rsi        # 2b3d <_IO_stdin_used+0x44d>
    7b31:	48 89 c7             	mov    %rax,%rdi
    7b34:	e8 f7 fa 00 00       	callq  17630 <_ZNSt13runtime_errorC1EPKc@plt>
    7b39:	48 8b 35 88 12 01 00 	mov    0x11288(%rip),%rsi        # 18dc8 <_ZTISt13runtime_error@GLIBCXX_3.4>
    7b40:	48 8b 15 91 12 01 00 	mov    0x11291(%rip),%rdx        # 18dd8 <_ZNSt13runtime_errorD1Ev@GLIBCXX_3.4>
    7b47:	48 89 df             	mov    %rbx,%rdi
    7b4a:	e8 41 fb 00 00       	callq  17690 <__cxa_throw@plt>
    7b4f:	49 89 c6             	mov    %rax,%r14
    7b52:	48 89 df             	mov    %rbx,%rdi
    7b55:	e8 96 fc 00 00       	callq  177f0 <__cxa_free_exception@plt>
    7b5a:	4c 89 f7             	mov    %r14,%rdi
    7b5d:	e8 0e fe 00 00       	callq  17970 <_Unwind_Resume@plt>
    7b62:	66 66 66 66 66 2e 0f 	data16 data16 data16 data16 nopw %cs:0x0(%rax,%rax,1)
    7b69:	1f 84 00 00 00 00 00 

0000000000007b70 <_ZN5utils8accuracyERKSt6vectorIfSaIfEES4_>:
    }

    // Calculate accuracy for classification
    float accuracy(const std::vector<float>& y_true, const std::vector<float>& y_pred) {
    7b70:	41 56                	push   %r14
    7b72:	53                   	push   %rbx
    7b73:	50                   	push   %rax
    7b74:	48 8b 0f             	mov    (%rdi),%rcx
    7b77:	48 8b 7f 08          	mov    0x8(%rdi),%rdi
    7b7b:	48 89 f8             	mov    %rdi,%rax
    7b7e:	48 29 c8             	sub    %rcx,%rax
    7b81:	48 8b 16             	mov    (%rsi),%rdx
    7b84:	48 8b 76 08          	mov    0x8(%rsi),%rsi
    7b88:	48 29 d6             	sub    %rdx,%rsi
        if (y_true.size() != y_pred.size()) {
    7b8b:	48 39 f0             	cmp    %rsi,%rax
    7b8e:	0f 85 c2 00 00 00    	jne    7c56 <_ZN5utils8accuracyERKSt6vectorIfSaIfEES4_+0xe6>
    7b94:	48 c1 f8 02          	sar    $0x2,%rax
            throw std::runtime_error("Arrays must have the same length");
        }

        size_t correct = 0;
        for (size_t i = 0; i < y_true.size(); ++i) {
    7b98:	48 39 cf             	cmp    %rcx,%rdi
    7b9b:	74 66                	je     7c03 <_ZN5utils8accuracyERKSt6vectorIfSaIfEES4_+0x93>
    7b9d:	48 83 f8 01          	cmp    $0x1,%rax
    7ba1:	48 89 c7             	mov    %rax,%rdi
    7ba4:	48 83 d7 00          	adc    $0x0,%rdi
    7ba8:	45 31 c0             	xor    %r8d,%r8d
    7bab:	f3 0f 10 05 25 ab ff 	movss  -0x54db(%rip),%xmm0        # 26d8 <_IO_stdin_used-0x18>
    7bb2:	ff 
    7bb3:	31 f6                	xor    %esi,%esi
    7bb5:	eb 14                	jmp    7bcb <_ZN5utils8accuracyERKSt6vectorIfSaIfEES4_+0x5b>
    7bb7:	66 0f 1f 84 00 00 00 	nopw   0x0(%rax,%rax,1)
    7bbe:	00 00 
            if ((y_pred[i] >= 0.5f && y_true[i] >= 0.5f) ||
                (y_pred[i] < 0.5f && y_true[i] < 0.5f)) {
                correct++;
    7bc0:	48 ff c6             	inc    %rsi
        for (size_t i = 0; i < y_true.size(); ++i) {
    7bc3:	49 ff c0             	inc    %r8
    7bc6:	4c 39 c7             	cmp    %r8,%rdi
    7bc9:	74 24                	je     7bef <_ZN5utils8accuracyERKSt6vectorIfSaIfEES4_+0x7f>
            if ((y_pred[i] >= 0.5f && y_true[i] >= 0.5f) ||
    7bcb:	f3 42 0f 10 0c 82    	movss  (%rdx,%r8,4),%xmm1
    7bd1:	0f 2e c8             	ucomiss %xmm0,%xmm1
    7bd4:	72 0b                	jb     7be1 <_ZN5utils8accuracyERKSt6vectorIfSaIfEES4_+0x71>
    7bd6:	f3 42 0f 10 14 81    	movss  (%rcx,%r8,4),%xmm2
    7bdc:	0f 2e d0             	ucomiss %xmm0,%xmm2
    7bdf:	73 df                	jae    7bc0 <_ZN5utils8accuracyERKSt6vectorIfSaIfEES4_+0x50>
                (y_pred[i] < 0.5f && y_true[i] < 0.5f)) {
    7be1:	0f 2e c1             	ucomiss %xmm1,%xmm0
    7be4:	76 dd                	jbe    7bc3 <_ZN5utils8accuracyERKSt6vectorIfSaIfEES4_+0x53>
    7be6:	42 0f 2e 04 81       	ucomiss (%rcx,%r8,4),%xmm0
            if ((y_pred[i] >= 0.5f && y_true[i] >= 0.5f) ||
    7beb:	77 d3                	ja     7bc0 <_ZN5utils8accuracyERKSt6vectorIfSaIfEES4_+0x50>
    7bed:	eb d4                	jmp    7bc3 <_ZN5utils8accuracyERKSt6vectorIfSaIfEES4_+0x53>
            }
        }

        return static_cast<float>(correct) / y_true.size();
    7bef:	48 85 f6             	test   %rsi,%rsi
    7bf2:	78 21                	js     7c15 <_ZN5utils8accuracyERKSt6vectorIfSaIfEES4_+0xa5>
    7bf4:	0f 57 c0             	xorps  %xmm0,%xmm0
    7bf7:	f3 48 0f 2a c6       	cvtsi2ss %rsi,%xmm0
    7bfc:	48 85 c0             	test   %rax,%rax
    7bff:	79 0a                	jns    7c0b <_ZN5utils8accuracyERKSt6vectorIfSaIfEES4_+0x9b>
    7c01:	eb 2f                	jmp    7c32 <_ZN5utils8accuracyERKSt6vectorIfSaIfEES4_+0xc2>
    7c03:	0f 57 c0             	xorps  %xmm0,%xmm0
    7c06:	48 85 c0             	test   %rax,%rax
    7c09:	78 27                	js     7c32 <_ZN5utils8accuracyERKSt6vectorIfSaIfEES4_+0xc2>
    7c0b:	0f 57 c9             	xorps  %xmm1,%xmm1
    7c0e:	f3 48 0f 2a c8       	cvtsi2ss %rax,%xmm1
    7c13:	eb 35                	jmp    7c4a <_ZN5utils8accuracyERKSt6vectorIfSaIfEES4_+0xda>
    7c15:	48 89 f1             	mov    %rsi,%rcx
    7c18:	48 d1 e9             	shr    %rcx
    7c1b:	83 e6 01             	and    $0x1,%esi
    7c1e:	48 09 ce             	or     %rcx,%rsi
    7c21:	0f 57 c0             	xorps  %xmm0,%xmm0
    7c24:	f3 48 0f 2a c6       	cvtsi2ss %rsi,%xmm0
    7c29:	f3 0f 58 c0          	addss  %xmm0,%xmm0
    7c2d:	48 85 c0             	test   %rax,%rax
    7c30:	79 d9                	jns    7c0b <_ZN5utils8accuracyERKSt6vectorIfSaIfEES4_+0x9b>
    7c32:	48 89 c1             	mov    %rax,%rcx
    7c35:	48 d1 e9             	shr    %rcx
    7c38:	83 e0 01             	and    $0x1,%eax
    7c3b:	48 09 c8             	or     %rcx,%rax
    7c3e:	0f 57 c9             	xorps  %xmm1,%xmm1
    7c41:	f3 48 0f 2a c8       	cvtsi2ss %rax,%xmm1
    7c46:	f3 0f 58 c9          	addss  %xmm1,%xmm1
    7c4a:	f3 0f 5e c1          	divss  %xmm1,%xmm0
    7c4e:	48 83 c4 08          	add    $0x8,%rsp
    7c52:	5b                   	pop    %rbx
    7c53:	41 5e                	pop    %r14
    7c55:	c3                   	retq   
            throw std::runtime_error("Arrays must have the same length");
    7c56:	bf 10 00 00 00       	mov    $0x10,%edi
    7c5b:	e8 80 fa 00 00       	callq  176e0 <__cxa_allocate_exception@plt>
    7c60:	48 89 c3             	mov    %rax,%rbx
    7c63:	48 8d 35 d3 ae ff ff 	lea    -0x512d(%rip),%rsi        # 2b3d <_IO_stdin_used+0x44d>
    7c6a:	48 89 c7             	mov    %rax,%rdi
    7c6d:	e8 be f9 00 00       	callq  17630 <_ZNSt13runtime_errorC1EPKc@plt>
    7c72:	48 8b 35 4f 11 01 00 	mov    0x1114f(%rip),%rsi        # 18dc8 <_ZTISt13runtime_error@GLIBCXX_3.4>
    7c79:	48 8b 15 58 11 01 00 	mov    0x11158(%rip),%rdx        # 18dd8 <_ZNSt13runtime_errorD1Ev@GLIBCXX_3.4>
    7c80:	48 89 df             	mov    %rbx,%rdi
    7c83:	e8 08 fa 00 00       	callq  17690 <__cxa_throw@plt>
    7c88:	49 89 c6             	mov    %rax,%r14
    7c8b:	48 89 df             	mov    %rbx,%rdi
    7c8e:	e8 5d fb 00 00       	callq  177f0 <__cxa_free_exception@plt>
    7c93:	4c 89 f7             	mov    %r14,%rdi
    7c96:	e8 d5 fc 00 00       	callq  17970 <_Unwind_Resume@plt>
    7c9b:	0f 1f 44 00 00       	nopl   0x0(%rax,%rax,1)

0000000000007ca0 <_Z10selectTop2PN7genetic7programEi>:

std::pair<ssize_t, ssize_t> selectTop2(genetic::program* programs, int size) {
    ssize_t idx1 = 0, idx2 = 0;
    float   rf1 = programs[0].raw_fitness_;
    float   rf2 = programs[0].raw_fitness_;
    for (int i = 1; i < size; i++) {
    7ca0:	83 fe 02             	cmp    $0x2,%esi
    7ca3:	7c 2b                	jl     7cd0 <_Z10selectTop2PN7genetic7programEi+0x30>
    float   rf1 = programs[0].raw_fitness_;
    7ca5:	f3 0f 10 47 10       	movss  0x10(%rdi),%xmm0
    for (int i = 1; i < size; i++) {
    7caa:	41 89 f0             	mov    %esi,%r8d
    7cad:	49 ff c8             	dec    %r8
    7cb0:	83 fe 02             	cmp    $0x2,%esi
    7cb3:	75 20                	jne    7cd5 <_Z10selectTop2PN7genetic7programEi+0x35>
    7cb5:	b9 01 00 00 00       	mov    $0x1,%ecx
    7cba:	31 d2                	xor    %edx,%edx
    7cbc:	0f 28 c8             	movaps %xmm0,%xmm1
    7cbf:	45 31 c9             	xor    %r9d,%r9d
    7cc2:	4c 89 c8             	mov    %r9,%rax
        float rf = programs[i].raw_fitness_;
        if (rf < rf1) {
    7cc5:	41 f6 c0 01          	test   $0x1,%r8b
    7cc9:	0f 85 a6 00 00 00    	jne    7d75 <_Z10selectTop2PN7genetic7programEi+0xd5>
            rf2  = rf;
            idx2 = i;
        }
    }
    return std::make_pair(idx1, idx2);
}
    7ccf:	c3                   	retq   
    7cd0:	31 c0                	xor    %eax,%eax
    7cd2:	31 d2                	xor    %edx,%edx
    7cd4:	c3                   	retq   
    for (int i = 1; i < size; i++) {
    7cd5:	48 8d 47 50          	lea    0x50(%rdi),%rax
    7cd9:	4c 89 c6             	mov    %r8,%rsi
    7cdc:	48 83 e6 fe          	and    $0xfffffffffffffffe,%rsi
    7ce0:	48 f7 de             	neg    %rsi
    7ce3:	b9 01 00 00 00       	mov    $0x1,%ecx
    7ce8:	45 31 d2             	xor    %r10d,%r10d
    7ceb:	0f 28 c8             	movaps %xmm0,%xmm1
    7cee:	45 31 c9             	xor    %r9d,%r9d
    7cf1:	eb 32                	jmp    7d25 <_Z10selectTop2PN7genetic7programEi+0x85>
    7cf3:	66 66 66 66 2e 0f 1f 	data16 data16 data16 nopw %cs:0x0(%rax,%rax,1)
    7cfa:	84 00 00 00 00 00 
    7d00:	49 89 d1             	mov    %rdx,%r9
    7d03:	4c 89 da             	mov    %r11,%rdx
    7d06:	0f 28 c8             	movaps %xmm0,%xmm1
    7d09:	0f 28 c2             	movaps %xmm2,%xmm0
    7d0c:	48 83 c0 40          	add    $0x40,%rax
    7d10:	4c 8d 1c 0e          	lea    (%rsi,%rcx,1),%r11
    7d14:	49 83 c3 02          	add    $0x2,%r11
    7d18:	48 83 c1 02          	add    $0x2,%rcx
    7d1c:	49 89 d2             	mov    %rdx,%r10
    7d1f:	49 83 fb 01          	cmp    $0x1,%r11
    7d23:	74 9d                	je     7cc2 <_Z10selectTop2PN7genetic7programEi+0x22>
        float rf = programs[i].raw_fitness_;
    7d25:	f3 0f 10 50 e0       	movss  -0x20(%rax),%xmm2
        if (rf < rf1) {
    7d2a:	0f 2e c2             	ucomiss %xmm2,%xmm0
    7d2d:	76 11                	jbe    7d40 <_Z10selectTop2PN7genetic7programEi+0xa0>
    7d2f:	49 89 cb             	mov    %rcx,%r11
    7d32:	4d 89 ca             	mov    %r9,%r10
    7d35:	0f 28 c8             	movaps %xmm0,%xmm1
    7d38:	0f 28 c2             	movaps %xmm2,%xmm0
    7d3b:	eb 11                	jmp    7d4e <_Z10selectTop2PN7genetic7programEi+0xae>
    7d3d:	0f 1f 00             	nopl   (%rax)
    7d40:	4d 89 cb             	mov    %r9,%r11
        } else if (rf < rf2) {
    7d43:	0f 2e ca             	ucomiss %xmm2,%xmm1
    7d46:	76 06                	jbe    7d4e <_Z10selectTop2PN7genetic7programEi+0xae>
    7d48:	49 89 ca             	mov    %rcx,%r10
    7d4b:	0f 28 ca             	movaps %xmm2,%xmm1
        float rf = programs[i].raw_fitness_;
    7d4e:	48 8d 51 01          	lea    0x1(%rcx),%rdx
    7d52:	f3 0f 10 10          	movss  (%rax),%xmm2
        if (rf < rf1) {
    7d56:	0f 2e c2             	ucomiss %xmm2,%xmm0
    7d59:	77 a5                	ja     7d00 <_Z10selectTop2PN7genetic7programEi+0x60>
    7d5b:	4d 89 d9             	mov    %r11,%r9
        } else if (rf < rf2) {
    7d5e:	0f 2e ca             	ucomiss %xmm2,%xmm1
    7d61:	76 0d                	jbe    7d70 <_Z10selectTop2PN7genetic7programEi+0xd0>
    7d63:	0f 28 ca             	movaps %xmm2,%xmm1
    7d66:	eb a4                	jmp    7d0c <_Z10selectTop2PN7genetic7programEi+0x6c>
    7d68:	0f 1f 84 00 00 00 00 	nopl   0x0(%rax,%rax,1)
    7d6f:	00 
    7d70:	4c 89 d2             	mov    %r10,%rdx
    7d73:	eb 97                	jmp    7d0c <_Z10selectTop2PN7genetic7programEi+0x6c>
        float rf = programs[i].raw_fitness_;
    7d75:	48 89 c8             	mov    %rcx,%rax
    7d78:	48 c1 e0 05          	shl    $0x5,%rax
    7d7c:	f3 0f 10 54 07 10    	movss  0x10(%rdi,%rax,1),%xmm2
        if (rf < rf1) {
    7d82:	0f 2e c2             	ucomiss %xmm2,%xmm0
    7d85:	76 07                	jbe    7d8e <_Z10selectTop2PN7genetic7programEi+0xee>
    7d87:	48 89 c8             	mov    %rcx,%rax
    7d8a:	4c 89 ca             	mov    %r9,%rdx
}
    7d8d:	c3                   	retq   
    7d8e:	4c 89 c8             	mov    %r9,%rax
        } else if (rf < rf2) {
    7d91:	0f 2e ca             	ucomiss %xmm2,%xmm1
    7d94:	0f 86 35 ff ff ff    	jbe    7ccf <_Z10selectTop2PN7genetic7programEi+0x2f>
    7d9a:	48 89 ca             	mov    %rcx,%rdx
}
    7d9d:	c3                   	retq   
    7d9e:	66 90                	xchg   %ax,%ax

0000000000007da0 <_Z21insertionSortProgramsPN7genetic7programEi>:

void insertionSortPrograms(genetic::program* programs, int size) {
    7da0:	55                   	push   %rbp
    7da1:	41 57                	push   %r15
    7da3:	41 56                	push   %r14
    7da5:	41 55                	push   %r13
    7da7:	41 54                	push   %r12
    7da9:	53                   	push   %rbx
    7daa:	48 83 ec 28          	sub    $0x28,%rsp
    for (int i = 1; i < size; i++) {
    7dae:	83 fe 02             	cmp    $0x2,%esi
    7db1:	0f 8c 92 00 00 00    	jl     7e49 <_Z21insertionSortProgramsPN7genetic7programEi+0xa9>
    7db7:	48 89 fb             	mov    %rdi,%rbx
    7dba:	89 f0                	mov    %esi,%eax
    7dbc:	48 89 04 24          	mov    %rax,(%rsp)
    7dc0:	4c 8d 6f 20          	lea    0x20(%rdi),%r13
    7dc4:	41 bc 01 00 00 00    	mov    $0x1,%r12d
    7dca:	4c 8d 74 24 08       	lea    0x8(%rsp),%r14
    7dcf:	90                   	nop
        genetic::program key(programs[i]);
    7dd0:	4c 89 e6             	mov    %r12,%rsi
    7dd3:	48 c1 e6 05          	shl    $0x5,%rsi
    7dd7:	48 01 de             	add    %rbx,%rsi
    7dda:	4c 89 f7             	mov    %r14,%rdi
    7ddd:	e8 5e 5f 00 00       	callq  dd40 <_ZN7genetic7programC1ERKS0_>
    7de2:	4c 89 ef             	mov    %r13,%rdi
    7de5:	4c 89 e5             	mov    %r12,%rbp
    7de8:	0f 1f 84 00 00 00 00 	nopl   0x0(%rax,%rax,1)
    7def:	00 
        int              j = i - 1;

        while (j >= 0 && (programs[j].raw_fitness_ > key.raw_fitness_)) {
    7df0:	48 85 ed             	test   %rbp,%rbp
    7df3:	7e 2b                	jle    7e20 <_Z21insertionSortProgramsPN7genetic7programEi+0x80>
    7df5:	f3 0f 10 47 f0       	movss  -0x10(%rdi),%xmm0
    7dfa:	0f 2e 44 24 18       	ucomiss 0x18(%rsp),%xmm0
    7dff:	76 21                	jbe    7e22 <_Z21insertionSortProgramsPN7genetic7programEi+0x82>
            programs[j + 1] = programs[j];
    7e01:	4c 8d 7f e0          	lea    -0x20(%rdi),%r15
    7e05:	48 ff cd             	dec    %rbp
    7e08:	4c 89 fe             	mov    %r15,%rsi
    7e0b:	e8 30 60 00 00       	callq  de40 <_ZN7genetic7programaSERKS0_>
    7e10:	4c 89 ff             	mov    %r15,%rdi
    7e13:	eb db                	jmp    7df0 <_Z21insertionSortProgramsPN7genetic7programEi+0x50>
    7e15:	66 66 2e 0f 1f 84 00 	data16 nopw %cs:0x0(%rax,%rax,1)
    7e1c:	00 00 00 00 
    7e20:	31 ed                	xor    %ebp,%ebp
            j--;
        }
        programs[j + 1] = key;
    7e22:	48 63 fd             	movslq %ebp,%rdi
    7e25:	48 c1 e7 05          	shl    $0x5,%rdi
    7e29:	48 01 df             	add    %rbx,%rdi
    7e2c:	4c 89 f6             	mov    %r14,%rsi
    7e2f:	e8 0c 60 00 00       	callq  de40 <_ZN7genetic7programaSERKS0_>
    }
    7e34:	4c 89 f7             	mov    %r14,%rdi
    7e37:	e8 e4 5e 00 00       	callq  dd20 <_ZN7genetic7programD1Ev>
    for (int i = 1; i < size; i++) {
    7e3c:	49 ff c4             	inc    %r12
    7e3f:	49 83 c5 20          	add    $0x20,%r13
    7e43:	4c 3b 24 24          	cmp    (%rsp),%r12
    7e47:	75 87                	jne    7dd0 <_Z21insertionSortProgramsPN7genetic7programEi+0x30>
}
    7e49:	48 83 c4 28          	add    $0x28,%rsp
    7e4d:	5b                   	pop    %rbx
    7e4e:	41 5c                	pop    %r12
    7e50:	41 5d                	pop    %r13
    7e52:	41 5e                	pop    %r14
    7e54:	41 5f                	pop    %r15
    7e56:	5d                   	pop    %rbp
    7e57:	c3                   	retq   
    7e58:	eb 00                	jmp    7e5a <_Z21insertionSortProgramsPN7genetic7programEi+0xba>
    7e5a:	48 89 c3             	mov    %rax,%rbx
    7e5d:	48 8d 7c 24 08       	lea    0x8(%rsp),%rdi
    }
    7e62:	e8 b9 5e 00 00       	callq  dd20 <_ZN7genetic7programD1Ev>
    7e67:	48 89 df             	mov    %rbx,%rdi
    7e6a:	e8 01 fb 00 00       	callq  17970 <_Unwind_Resume@plt>
    7e6f:	90                   	nop

0000000000007e70 <_Z23run_symbolic_regressionRKNSt7__cxx1112basic_stringIcSt11char_traitsIcESaIcEEE>:

void run_symbolic_regression(const std::string& dataset_file) {
    7e70:	55                   	push   %rbp
    7e71:	41 57                	push   %r15
    7e73:	41 56                	push   %r14
    7e75:	41 55                	push   %r13
    7e77:	41 54                	push   %r12
    7e79:	53                   	push   %rbx
    7e7a:	48 81 ec d8 02 00 00 	sub    $0x2d8,%rsp
    7e81:	48 89 fb             	mov    %rdi,%rbx
    operator<<(basic_ostream<char, _Traits>& __out, const char* __s)
    {
      if (!__s)
	__out.setstate(ios_base::badbit);
      else
	__ostream_insert(__out, __s,
    7e84:	4c 8b 35 5d 0f 01 00 	mov    0x10f5d(%rip),%r14        # 18de8 <_ZSt4cout@GLIBCXX_3.4>
    7e8b:	48 8d 35 c6 aa ff ff 	lea    -0x553a(%rip),%rsi        # 2958 <_IO_stdin_used+0x268>
    7e92:	ba 2b 00 00 00       	mov    $0x2b,%edx
    7e97:	4c 89 f7             	mov    %r14,%rdi
    7e9a:	e8 61 f8 00 00       	callq  17700 <_ZSt16__ostream_insertIcSt11char_traitsIcEERSt13basic_ostreamIT_T0_ES6_PKS3_l@plt>
   *  for more on this subject.
  */
  template<typename _CharT, typename _Traits>
    inline basic_ostream<_CharT, _Traits>&
    endl(basic_ostream<_CharT, _Traits>& __os)
    { return flush(__os.put(__os.widen('\n'))); }
    7e9f:	49 8b 06             	mov    (%r14),%rax
    7ea2:	48 8b 40 e8          	mov    -0x18(%rax),%rax
      { return __check_facet(_M_ctype).widen(__c); }
    7ea6:	4d 8b bc 06 f0 00 00 	mov    0xf0(%r14,%rax,1),%r15
    7ead:	00 
      if (!__f)
    7eae:	4d 85 ff             	test   %r15,%r15
    7eb1:	0f 84 63 1f 00 00    	je     9e1a <_Z23run_symbolic_regressionRKNSt7__cxx1112basic_stringIcSt11char_traitsIcESaIcEEE+0x1faa>
	if (_M_widen_ok)
    7eb7:	41 80 7f 38 00       	cmpb   $0x0,0x38(%r15)
    7ebc:	74 07                	je     7ec5 <_Z23run_symbolic_regressionRKNSt7__cxx1112basic_stringIcSt11char_traitsIcESaIcEEE+0x55>
	  return _M_widen[static_cast<unsigned char>(__c)];
    7ebe:	41 0f b6 47 43       	movzbl 0x43(%r15),%eax
    7ec3:	eb 16                	jmp    7edb <_Z23run_symbolic_regressionRKNSt7__cxx1112basic_stringIcSt11char_traitsIcESaIcEEE+0x6b>
	this->_M_widen_init();
    7ec5:	4c 89 ff             	mov    %r15,%rdi
    7ec8:	e8 63 f8 00 00       	callq  17730 <_ZNKSt5ctypeIcE13_M_widen_initEv@plt>
	return this->do_widen(__c);
    7ecd:	49 8b 07             	mov    (%r15),%rax
    7ed0:	4c 89 ff             	mov    %r15,%rdi
    7ed3:	be 0a 00 00 00       	mov    $0xa,%esi
    7ed8:	ff 50 30             	callq  *0x30(%rax)
    7edb:	0f be f0             	movsbl %al,%esi
    7ede:	4c 89 f7             	mov    %r14,%rdi
    7ee1:	e8 3a f8 00 00       	callq  17720 <_ZNSo3putEc@plt>
   *  This manipulator simply calls the stream's @c flush() member function.
  */
  template<typename _CharT, typename _Traits>
    inline basic_ostream<_CharT, _Traits>&
    flush(basic_ostream<_CharT, _Traits>& __os)
    { return __os.flush(); }
    7ee6:	48 89 c7             	mov    %rax,%rdi
    7ee9:	e8 52 f8 00 00       	callq  17740 <_ZNSo5flushEv@plt>
    7eee:	48 8d b4 24 a8 02 00 	lea    0x2a8(%rsp),%rsi
    7ef5:	00 
 * @sa ctimer_measure
 * @sa ctimer_lap
 */
static inline void ctimer_start(ctimer_t* t /**<[in,out] stopwatch pointer */
) {
    clock_gettime(CLOCK_MONOTONIC, &t->start);
    7ef6:	bf 01 00 00 00       	mov    $0x1,%edi
    7efb:	e8 a0 fa 00 00       	callq  179a0 <clock_gettime@plt>
	__ostream_insert(__out, __s,
    7f00:	48 8d 35 cd a9 ff ff 	lea    -0x5633(%rip),%rsi        # 28d4 <_IO_stdin_used+0x1e4>
    7f07:	ba 12 00 00 00       	mov    $0x12,%edx
    7f0c:	4c 89 f7             	mov    %r14,%rdi
    7f0f:	e8 ec f7 00 00       	callq  17700 <_ZSt16__ostream_insertIcSt11char_traitsIcEERSt13basic_ostreamIT_T0_ES6_PKS3_l@plt>
    { return flush(__os.put(__os.widen('\n'))); }
    7f14:	49 8b 06             	mov    (%r14),%rax
    7f17:	48 8b 40 e8          	mov    -0x18(%rax),%rax
      { return __check_facet(_M_ctype).widen(__c); }
    7f1b:	4d 8b b4 06 f0 00 00 	mov    0xf0(%r14,%rax,1),%r14
    7f22:	00 
      if (!__f)
    7f23:	4d 85 f6             	test   %r14,%r14
    7f26:	0f 84 ee 1e 00 00    	je     9e1a <_Z23run_symbolic_regressionRKNSt7__cxx1112basic_stringIcSt11char_traitsIcESaIcEEE+0x1faa>
	if (_M_widen_ok)
    7f2c:	41 80 7e 38 00       	cmpb   $0x0,0x38(%r14)
    7f31:	74 07                	je     7f3a <_Z23run_symbolic_regressionRKNSt7__cxx1112basic_stringIcSt11char_traitsIcESaIcEEE+0xca>
	  return _M_widen[static_cast<unsigned char>(__c)];
    7f33:	41 0f b6 46 43       	movzbl 0x43(%r14),%eax
    7f38:	eb 16                	jmp    7f50 <_Z23run_symbolic_regressionRKNSt7__cxx1112basic_stringIcSt11char_traitsIcESaIcEEE+0xe0>
	this->_M_widen_init();
    7f3a:	4c 89 f7             	mov    %r14,%rdi
    7f3d:	e8 ee f7 00 00       	callq  17730 <_ZNKSt5ctypeIcE13_M_widen_initEv@plt>
	return this->do_widen(__c);
    7f42:	49 8b 06             	mov    (%r14),%rax
    7f45:	4c 89 f7             	mov    %r14,%rdi
    7f48:	be 0a 00 00 00       	mov    $0xa,%esi
    7f4d:	ff 50 30             	callq  *0x30(%rax)
    7f50:	0f be f0             	movsbl %al,%esi
    7f53:	48 8b 3d 8e 0e 01 00 	mov    0x10e8e(%rip),%rdi        # 18de8 <_ZSt4cout@GLIBCXX_3.4>
    7f5a:	e8 c1 f7 00 00       	callq  17720 <_ZNSo3putEc@plt>
    { return __os.flush(); }
    7f5f:	48 89 c7             	mov    %rax,%rdi
    7f62:	e8 d9 f7 00 00       	callq  17740 <_ZNSo5flushEv@plt>
    7f67:	48 8d bc 24 10 02 00 	lea    0x210(%rsp),%rdi
    7f6e:	00 
    ctimer_start(&end_to_end_timer);

    // Load dataset
    std::cout << "Loading dataset..." << std::endl;

    auto dataset = utils::load_dataset(dataset_file);
    7f6f:	48 89 de             	mov    %rbx,%rsi
    7f72:	e8 19 f0 ff ff       	callq  6f90 <_ZN5utils12load_datasetERKNSt7__cxx1112basic_stringIcSt11char_traitsIcESaIcEEE>
    7f77:	48 8b b4 24 18 02 00 	mov    0x218(%rsp),%rsi
    7f7e:	00 
	return __n != 0 ? _Tr::allocate(_M_impl, __n) : pointer();
    7f7f:	48 8b 84 24 10 02 00 	mov    0x210(%rsp),%rax
    7f86:	00 
    7f87:	48 89 f3             	mov    %rsi,%rbx
    7f8a:	48 29 c3             	sub    %rax,%rbx
      { return size_type(this->_M_impl._M_finish - this->_M_impl._M_start); }
    7f8d:	48 c1 fb 03          	sar    $0x3,%rbx
    7f91:	48 b9 ab aa aa aa aa 	movabs $0xaaaaaaaaaaaaaaab,%rcx
    7f98:	aa aa aa 
    7f9b:	48 0f af d9          	imul   %rcx,%rbx
	return __n != 0 ? _Tr::allocate(_M_impl, __n) : pointer();
    7f9f:	48 89 f7             	mov    %rsi,%rdi
    7fa2:	49 bd 55 55 55 55 55 	movabs $0x555555555555555,%r13
    7fa9:	55 55 05 
	: _M_start(), _M_finish(), _M_end_of_storage()
    7fac:	0f 57 c0             	xorps  %xmm0,%xmm0
    7faf:	0f 29 84 24 80 00 00 	movaps %xmm0,0x80(%rsp)
    7fb6:	00 
    7fb7:	48 c7 84 24 90 00 00 	movq   $0x0,0x90(%rsp)
    7fbe:	00 00 00 00 00 
	return __n != 0 ? _Tr::allocate(_M_impl, __n) : pointer();
    7fc3:	48 29 c7             	sub    %rax,%rdi
    7fc6:	74 23                	je     7feb <_Z23run_symbolic_regressionRKNSt7__cxx1112basic_stringIcSt11char_traitsIcESaIcEEE+0x17b>
	if (__n > this->_M_max_size())
    7fc8:	4c 39 eb             	cmp    %r13,%rbx
    7fcb:	0f 87 e0 1e 00 00    	ja     9eb1 <_Z23run_symbolic_regressionRKNSt7__cxx1112basic_stringIcSt11char_traitsIcESaIcEEE+0x2041>
	return static_cast<_Tp*>(::operator new(__n * sizeof(_Tp)));
    7fd1:	e8 8a f7 00 00       	callq  17760 <_Znwm@plt>
    7fd6:	48 89 c2             	mov    %rax,%rdx
      : _M_current(__i) { }
    7fd9:	48 8b bc 24 10 02 00 	mov    0x210(%rsp),%rdi
    7fe0:	00 
    7fe1:	48 8b b4 24 18 02 00 	mov    0x218(%rsp),%rsi
    7fe8:	00 
    7fe9:	eb 05                	jmp    7ff0 <_Z23run_symbolic_regressionRKNSt7__cxx1112basic_stringIcSt11char_traitsIcESaIcEEE+0x180>
    7feb:	31 d2                	xor    %edx,%edx
    7fed:	48 89 f7             	mov    %rsi,%rdi
	this->_M_impl._M_start = this->_M_allocate(__n);
    7ff0:	48 89 94 24 80 00 00 	mov    %rdx,0x80(%rsp)
    7ff7:	00 
	this->_M_impl._M_finish = this->_M_impl._M_start;
    7ff8:	48 89 94 24 88 00 00 	mov    %rdx,0x88(%rsp)
    7fff:	00 
	this->_M_impl._M_end_of_storage = this->_M_impl._M_start + __n;
    8000:	48 8d 04 5b          	lea    (%rbx,%rbx,2),%rax
    8004:	48 8d 04 c2          	lea    (%rdx,%rax,8),%rax
    8008:	48 89 84 24 90 00 00 	mov    %rax,0x90(%rsp)
    800f:	00 
      return std::__uninitialized_copy<__is_trivial(_ValueType1)
    8010:	e8 ab 4a 00 00       	callq  cac0 <_ZNSt20__uninitialized_copyILb0EE13__uninit_copyIN9__gnu_cxx17__normal_iteratorIPKSt6vectorIfSaIfEES4_IS6_SaIS6_EEEEPS6_EET0_T_SE_SD_>
    8015:	49 bc fc ff ff ff ff 	movabs $0x7ffffffffffffffc,%r12
    801c:	ff ff 7f 
	this->_M_impl._M_finish =
    801f:	48 89 84 24 88 00 00 	mov    %rax,0x88(%rsp)
    8026:	00 
      { return size_type(this->_M_impl._M_finish - this->_M_impl._M_start); }
    8027:	4c 8b bc 24 30 02 00 	mov    0x230(%rsp),%r15
    802e:	00 
	: _M_start(), _M_finish(), _M_end_of_storage()
    802f:	0f 57 c0             	xorps  %xmm0,%xmm0
    8032:	0f 29 84 24 b0 00 00 	movaps %xmm0,0xb0(%rsp)
    8039:	00 
    803a:	48 c7 84 24 c0 00 00 	movq   $0x0,0xc0(%rsp)
    8041:	00 00 00 00 00 
	return __n != 0 ? _Tr::allocate(_M_impl, __n) : pointer();
    8046:	4c 2b bc 24 28 02 00 	sub    0x228(%rsp),%r15
    804d:	00 
    804e:	74 51                	je     80a1 <_Z23run_symbolic_regressionRKNSt7__cxx1112basic_stringIcSt11char_traitsIcESaIcEEE+0x231>
	if (__n > this->_M_max_size())
    8050:	4d 39 e7             	cmp    %r12,%r15
    8053:	0f 87 5d 1e 00 00    	ja     9eb6 <_Z23run_symbolic_regressionRKNSt7__cxx1112basic_stringIcSt11char_traitsIcESaIcEEE+0x2046>
	return static_cast<_Tp*>(::operator new(__n * sizeof(_Tp)));
    8059:	4c 89 ff             	mov    %r15,%rdi
    805c:	e8 ff f6 00 00       	callq  17760 <_Znwm@plt>
    8061:	48 89 c3             	mov    %rax,%rbx
    8064:	48 8b b4 24 28 02 00 	mov    0x228(%rsp),%rsi
    806b:	00 
    806c:	4c 8b b4 24 30 02 00 	mov    0x230(%rsp),%r14
    8073:	00 
	this->_M_impl._M_start = this->_M_allocate(__n);
    8074:	48 89 84 24 b0 00 00 	mov    %rax,0xb0(%rsp)
    807b:	00 
	this->_M_impl._M_finish = this->_M_impl._M_start;
    807c:	48 89 84 24 b8 00 00 	mov    %rax,0xb8(%rsp)
    8083:	00 
	this->_M_impl._M_end_of_storage = this->_M_impl._M_start + __n;
    8084:	49 01 c7             	add    %rax,%r15
    8087:	4c 89 bc 24 c0 00 00 	mov    %r15,0xc0(%rsp)
    808e:	00 
	  if (_Num)
    808f:	49 29 f6             	sub    %rsi,%r14
    8092:	74 22                	je     80b6 <_Z23run_symbolic_regressionRKNSt7__cxx1112basic_stringIcSt11char_traitsIcESaIcEEE+0x246>
	    __builtin_memmove(__result, __first, sizeof(_Tp) * _Num);
    8094:	48 89 df             	mov    %rbx,%rdi
    8097:	4c 89 f2             	mov    %r14,%rdx
    809a:	e8 c1 f8 00 00       	callq  17960 <memmove@plt>
    809f:	eb 15                	jmp    80b6 <_Z23run_symbolic_regressionRKNSt7__cxx1112basic_stringIcSt11char_traitsIcESaIcEEE+0x246>
	this->_M_impl._M_finish = this->_M_impl._M_start;
    80a1:	0f 29 84 24 b0 00 00 	movaps %xmm0,0xb0(%rsp)
    80a8:	00 
	this->_M_impl._M_end_of_storage = this->_M_impl._M_start + __n;
    80a9:	4c 89 bc 24 c0 00 00 	mov    %r15,0xc0(%rsp)
    80b0:	00 
    80b1:	45 31 f6             	xor    %r14d,%r14d
    80b4:	31 db                	xor    %ebx,%ebx
	  return __result + _Num;
    80b6:	49 01 de             	add    %rbx,%r14
	this->_M_impl._M_finish =
    80b9:	4c 89 b4 24 b8 00 00 	mov    %r14,0xb8(%rsp)
    80c0:	00 
	__ostream_insert(__out, __s,
    80c1:	48 8b 3d 20 0d 01 00 	mov    0x10d20(%rip),%rdi        # 18de8 <_ZSt4cout@GLIBCXX_3.4>
    80c8:	48 8d 35 7f a7 ff ff 	lea    -0x5881(%rip),%rsi        # 284e <_IO_stdin_used+0x15e>
    80cf:	ba 14 00 00 00       	mov    $0x14,%edx
    80d4:	e8 27 f6 00 00       	callq  17700 <_ZSt16__ostream_insertIcSt11char_traitsIcEERSt13basic_ostreamIT_T0_ES6_PKS3_l@plt>
      { return size_type(this->_M_impl._M_finish - this->_M_impl._M_start); }
    80d9:	48 8b b4 24 88 00 00 	mov    0x88(%rsp),%rsi
    80e0:	00 
    80e1:	48 2b b4 24 80 00 00 	sub    0x80(%rsp),%rsi
    80e8:	00 
    80e9:	48 c1 fe 03          	sar    $0x3,%rsi
    80ed:	48 b8 ab aa aa aa aa 	movabs $0xaaaaaaaaaaaaaaab,%rax
    80f4:	aa aa aa 
    80f7:	48 0f af f0          	imul   %rax,%rsi
      { return _M_insert(__n); }
    80fb:	48 8b 3d e6 0c 01 00 	mov    0x10ce6(%rip),%rdi        # 18de8 <_ZSt4cout@GLIBCXX_3.4>
    8102:	e8 e9 f4 00 00       	callq  175f0 <_ZNSo9_M_insertImEERSoT_@plt>
    auto X       = dataset.first;
    auto y       = dataset.second;

    std::cout << "Dataset dimensions: " << X.size() << " samples x " << X[0].size() << " features"
    8107:	48 89 c3             	mov    %rax,%rbx
	__ostream_insert(__out, __s,
    810a:	48 8d 35 02 ad ff ff 	lea    -0x52fe(%rip),%rsi        # 2e13 <_IO_stdin_used+0x723>
    8111:	ba 0b 00 00 00       	mov    $0xb,%edx
    8116:	48 89 c7             	mov    %rax,%rdi
    8119:	e8 e2 f5 00 00       	callq  17700 <_ZSt16__ostream_insertIcSt11char_traitsIcEERSt13basic_ostreamIT_T0_ES6_PKS3_l@plt>
	return *(this->_M_impl._M_start + __n);
    811e:	48 8b 84 24 80 00 00 	mov    0x80(%rsp),%rax
    8125:	00 
      { return size_type(this->_M_impl._M_finish - this->_M_impl._M_start); }
    8126:	48 8b 70 08          	mov    0x8(%rax),%rsi
    812a:	48 2b 30             	sub    (%rax),%rsi
    812d:	48 c1 fe 02          	sar    $0x2,%rsi
      { return _M_insert(__n); }
    8131:	48 89 df             	mov    %rbx,%rdi
    8134:	e8 b7 f4 00 00       	callq  175f0 <_ZNSo9_M_insertImEERSoT_@plt>
    8139:	48 89 c3             	mov    %rax,%rbx
	__ostream_insert(__out, __s,
    813c:	48 8d 35 49 ac ff ff 	lea    -0x53b7(%rip),%rsi        # 2d8c <_IO_stdin_used+0x69c>
    8143:	ba 09 00 00 00       	mov    $0x9,%edx
    8148:	48 89 c7             	mov    %rax,%rdi
    814b:	e8 b0 f5 00 00       	callq  17700 <_ZSt16__ostream_insertIcSt11char_traitsIcEERSt13basic_ostreamIT_T0_ES6_PKS3_l@plt>
    { return flush(__os.put(__os.widen('\n'))); }
    8150:	48 8b 03             	mov    (%rbx),%rax
    8153:	48 8b 40 e8          	mov    -0x18(%rax),%rax
      { return __check_facet(_M_ctype).widen(__c); }
    8157:	4c 8b b4 03 f0 00 00 	mov    0xf0(%rbx,%rax,1),%r14
    815e:	00 
      if (!__f)
    815f:	4d 85 f6             	test   %r14,%r14
    8162:	0f 84 b7 1c 00 00    	je     9e1f <_Z23run_symbolic_regressionRKNSt7__cxx1112basic_stringIcSt11char_traitsIcESaIcEEE+0x1faf>
	if (_M_widen_ok)
    8168:	41 80 7e 38 00       	cmpb   $0x0,0x38(%r14)
    816d:	74 07                	je     8176 <_Z23run_symbolic_regressionRKNSt7__cxx1112basic_stringIcSt11char_traitsIcESaIcEEE+0x306>
	  return _M_widen[static_cast<unsigned char>(__c)];
    816f:	41 0f b6 46 43       	movzbl 0x43(%r14),%eax
    8174:	eb 16                	jmp    818c <_Z23run_symbolic_regressionRKNSt7__cxx1112basic_stringIcSt11char_traitsIcESaIcEEE+0x31c>
	this->_M_widen_init();
    8176:	4c 89 f7             	mov    %r14,%rdi
    8179:	e8 b2 f5 00 00       	callq  17730 <_ZNKSt5ctypeIcE13_M_widen_initEv@plt>
	return this->do_widen(__c);
    817e:	49 8b 06             	mov    (%r14),%rax
    8181:	4c 89 f7             	mov    %r14,%rdi
    8184:	be 0a 00 00 00       	mov    $0xa,%esi
    8189:	ff 50 30             	callq  *0x30(%rax)
    818c:	0f be f0             	movsbl %al,%esi
    818f:	48 89 df             	mov    %rbx,%rdi
    8192:	e8 89 f5 00 00       	callq  17720 <_ZNSo3putEc@plt>
    { return __os.flush(); }
    8197:	48 89 c7             	mov    %rax,%rdi
    819a:	e8 a1 f5 00 00       	callq  17740 <_ZNSo5flushEv@plt>
    819f:	48 8d bc 24 e0 01 00 	lea    0x1e0(%rsp),%rdi
    81a6:	00 
    81a7:	48 8d b4 24 80 00 00 	lea    0x80(%rsp),%rsi
    81ae:	00 
    81af:	f3 0f 10 05 2d a5 ff 	movss  -0x5ad3(%rip),%xmm0        # 26e4 <_IO_stdin_used-0xc>
    81b6:	ff 
              << std::endl;

    // Split dataset
    auto X_split = utils::train_test_split(X);
    81b7:	e8 44 4a 00 00       	callq  cc00 <_ZN5utils16train_test_splitISt6vectorIS1_IfSaIfEESaIS3_EEEESt4pairIT_S7_ERKS7_f>
    81bc:	48 8d bc 24 58 02 00 	lea    0x258(%rsp),%rdi
    81c3:	00 
    81c4:	48 8d b4 24 b0 00 00 	lea    0xb0(%rsp),%rsi
    81cb:	00 
    81cc:	f3 0f 10 05 10 a5 ff 	movss  -0x5af0(%rip),%xmm0        # 26e4 <_IO_stdin_used-0xc>
    81d3:	ff 
    auto y_split = utils::train_test_split(y);
    81d4:	e8 87 50 00 00       	callq  d260 <_ZN5utils16train_test_splitISt6vectorIfSaIfEEEESt4pairIT_S5_ERKS5_f>
    81d9:	48 8b b4 24 e8 01 00 	mov    0x1e8(%rsp),%rsi
    81e0:	00 
	return __n != 0 ? _Tr::allocate(_M_impl, __n) : pointer();
    81e1:	48 8b 84 24 e0 01 00 	mov    0x1e0(%rsp),%rax
    81e8:	00 
    81e9:	48 89 f3             	mov    %rsi,%rbx
    81ec:	48 29 c3             	sub    %rax,%rbx
      { return size_type(this->_M_impl._M_finish - this->_M_impl._M_start); }
    81ef:	48 c1 fb 03          	sar    $0x3,%rbx
    81f3:	48 b9 ab aa aa aa aa 	movabs $0xaaaaaaaaaaaaaaab,%rcx
    81fa:	aa aa aa 
    81fd:	48 0f af d9          	imul   %rcx,%rbx
	return __n != 0 ? _Tr::allocate(_M_impl, __n) : pointer();
    8201:	48 89 f7             	mov    %rsi,%rdi
    8204:	48 29 c7             	sub    %rax,%rdi
    8207:	74 23                	je     822c <_Z23run_symbolic_regressionRKNSt7__cxx1112basic_stringIcSt11char_traitsIcESaIcEEE+0x3bc>
	if (__n > this->_M_max_size())
    8209:	4c 39 eb             	cmp    %r13,%rbx
    820c:	0f 87 a9 1c 00 00    	ja     9ebb <_Z23run_symbolic_regressionRKNSt7__cxx1112basic_stringIcSt11char_traitsIcESaIcEEE+0x204b>
	return static_cast<_Tp*>(::operator new(__n * sizeof(_Tp)));
    8212:	e8 49 f5 00 00       	callq  17760 <_Znwm@plt>
    8217:	49 89 c6             	mov    %rax,%r14
    821a:	48 8b bc 24 e0 01 00 	mov    0x1e0(%rsp),%rdi
    8221:	00 
    8222:	48 8b b4 24 e8 01 00 	mov    0x1e8(%rsp),%rsi
    8229:	00 
    822a:	eb 06                	jmp    8232 <_Z23run_symbolic_regressionRKNSt7__cxx1112basic_stringIcSt11char_traitsIcESaIcEEE+0x3c2>
    822c:	45 31 f6             	xor    %r14d,%r14d
    822f:	48 89 f7             	mov    %rsi,%rdi
	this->_M_impl._M_start = this->_M_allocate(__n);
    8232:	4c 89 b4 24 40 02 00 	mov    %r14,0x240(%rsp)
    8239:	00 
	this->_M_impl._M_end_of_storage = this->_M_impl._M_start + __n;
    823a:	48 8d 04 5b          	lea    (%rbx,%rbx,2),%rax
    823e:	49 8d 04 c6          	lea    (%r14,%rax,8),%rax
    8242:	48 89 84 24 50 02 00 	mov    %rax,0x250(%rsp)
    8249:	00 
    824a:	4c 89 f2             	mov    %r14,%rdx
    824d:	4c 89 74 24 18       	mov    %r14,0x18(%rsp)
    8252:	e8 69 48 00 00       	callq  cac0 <_ZNSt20__uninitialized_copyILb0EE13__uninit_copyIN9__gnu_cxx17__normal_iteratorIPKSt6vectorIfSaIfEES4_IS6_SaIS6_EEEEPS6_EET0_T_SE_SD_>
      { return size_type(this->_M_impl._M_finish - this->_M_impl._M_start); }
    8257:	48 8b b4 24 00 02 00 	mov    0x200(%rsp),%rsi
    825e:	00 
	return __n != 0 ? _Tr::allocate(_M_impl, __n) : pointer();
    825f:	48 8b 94 24 f8 01 00 	mov    0x1f8(%rsp),%rdx
    8266:	00 
    8267:	48 89 f3             	mov    %rsi,%rbx
    826a:	48 29 d3             	sub    %rdx,%rbx
      { return size_type(this->_M_impl._M_finish - this->_M_impl._M_start); }
    826d:	48 c1 fb 03          	sar    $0x3,%rbx
    8271:	48 b9 ab aa aa aa aa 	movabs $0xaaaaaaaaaaaaaaab,%rcx
    8278:	aa aa aa 
    827b:	48 0f af d9          	imul   %rcx,%rbx
	return __n != 0 ? _Tr::allocate(_M_impl, __n) : pointer();
    827f:	48 89 f7             	mov    %rsi,%rdi
	this->_M_impl._M_finish =
    8282:	48 89 84 24 48 02 00 	mov    %rax,0x248(%rsp)
    8289:	00 
	return __n != 0 ? _Tr::allocate(_M_impl, __n) : pointer();
    828a:	48 29 d7             	sub    %rdx,%rdi
    828d:	48 89 44 24 28       	mov    %rax,0x28(%rsp)
    8292:	74 23                	je     82b7 <_Z23run_symbolic_regressionRKNSt7__cxx1112basic_stringIcSt11char_traitsIcESaIcEEE+0x447>
	if (__n > this->_M_max_size())
    8294:	4c 39 eb             	cmp    %r13,%rbx
    8297:	0f 87 23 1c 00 00    	ja     9ec0 <_Z23run_symbolic_regressionRKNSt7__cxx1112basic_stringIcSt11char_traitsIcESaIcEEE+0x2050>
	return static_cast<_Tp*>(::operator new(__n * sizeof(_Tp)));
    829d:	e8 be f4 00 00       	callq  17760 <_Znwm@plt>
    82a2:	49 89 c5             	mov    %rax,%r13
    82a5:	48 8b bc 24 f8 01 00 	mov    0x1f8(%rsp),%rdi
    82ac:	00 
    82ad:	48 8b b4 24 00 02 00 	mov    0x200(%rsp),%rsi
    82b4:	00 
    82b5:	eb 06                	jmp    82bd <_Z23run_symbolic_regressionRKNSt7__cxx1112basic_stringIcSt11char_traitsIcESaIcEEE+0x44d>
    82b7:	45 31 ed             	xor    %r13d,%r13d
    82ba:	48 89 f7             	mov    %rsi,%rdi
	this->_M_impl._M_start = this->_M_allocate(__n);
    82bd:	4c 89 ac 24 c8 00 00 	mov    %r13,0xc8(%rsp)
    82c4:	00 
	this->_M_impl._M_end_of_storage = this->_M_impl._M_start + __n;
    82c5:	48 8d 04 5b          	lea    (%rbx,%rbx,2),%rax
    82c9:	48 8d 04 c5 00 00 00 	lea    0x0(,%rax,8),%rax
    82d0:	00 
    82d1:	4c 01 e8             	add    %r13,%rax
    82d4:	48 89 84 24 d8 00 00 	mov    %rax,0xd8(%rsp)
    82db:	00 
    82dc:	4c 89 ea             	mov    %r13,%rdx
    82df:	e8 dc 47 00 00       	callq  cac0 <_ZNSt20__uninitialized_copyILb0EE13__uninit_copyIN9__gnu_cxx17__normal_iteratorIPKSt6vectorIfSaIfEES4_IS6_SaIS6_EEEEPS6_EET0_T_SE_SD_>
    82e4:	49 89 c7             	mov    %rax,%r15
	this->_M_impl._M_finish =
    82e7:	48 89 84 24 d0 00 00 	mov    %rax,0xd0(%rsp)
    82ee:	00 
      { return size_type(this->_M_impl._M_finish - this->_M_impl._M_start); }
    82ef:	48 8b bc 24 60 02 00 	mov    0x260(%rsp),%rdi
    82f6:	00 
    82f7:	b0 01                	mov    $0x1,%al
    82f9:	89 44 24 14          	mov    %eax,0x14(%rsp)
	return __n != 0 ? _Tr::allocate(_M_impl, __n) : pointer();
    82fd:	48 2b bc 24 58 02 00 	sub    0x258(%rsp),%rdi
    8304:	00 
    8305:	74 36                	je     833d <_Z23run_symbolic_regressionRKNSt7__cxx1112basic_stringIcSt11char_traitsIcESaIcEEE+0x4cd>
	if (__n > this->_M_max_size())
    8307:	4c 39 e7             	cmp    %r12,%rdi
    830a:	0f 87 b5 1b 00 00    	ja     9ec5 <_Z23run_symbolic_regressionRKNSt7__cxx1112basic_stringIcSt11char_traitsIcESaIcEEE+0x2055>
	return static_cast<_Tp*>(::operator new(__n * sizeof(_Tp)));
    8310:	e8 4b f4 00 00       	callq  17760 <_Znwm@plt>
    8315:	48 89 c5             	mov    %rax,%rbp
    8318:	48 8b b4 24 58 02 00 	mov    0x258(%rsp),%rsi
    831f:	00 
    8320:	48 8b 9c 24 60 02 00 	mov    0x260(%rsp),%rbx
    8327:	00 
	  if (_Num)
    8328:	48 29 f3             	sub    %rsi,%rbx
    832b:	74 19                	je     8346 <_Z23run_symbolic_regressionRKNSt7__cxx1112basic_stringIcSt11char_traitsIcESaIcEEE+0x4d6>
	    __builtin_memmove(__result, __first, sizeof(_Tp) * _Num);
    832d:	48 89 ef             	mov    %rbp,%rdi
    8330:	48 89 da             	mov    %rbx,%rdx
    8333:	e8 28 f6 00 00       	callq  17960 <memmove@plt>
    8338:	45 31 f6             	xor    %r14d,%r14d
    833b:	eb 0c                	jmp    8349 <_Z23run_symbolic_regressionRKNSt7__cxx1112basic_stringIcSt11char_traitsIcESaIcEEE+0x4d9>
    833d:	31 db                	xor    %ebx,%ebx
    833f:	41 b6 01             	mov    $0x1,%r14b
    8342:	31 ed                	xor    %ebp,%ebp
    8344:	eb 03                	jmp    8349 <_Z23run_symbolic_regressionRKNSt7__cxx1112basic_stringIcSt11char_traitsIcESaIcEEE+0x4d9>
    8346:	41 b6 01             	mov    $0x1,%r14b
      { return size_type(this->_M_impl._M_finish - this->_M_impl._M_start); }
    8349:	48 8b bc 24 78 02 00 	mov    0x278(%rsp),%rdi
    8350:	00 
	return __n != 0 ? _Tr::allocate(_M_impl, __n) : pointer();
    8351:	48 2b bc 24 70 02 00 	sub    0x270(%rsp),%rdi
    8358:	00 
    8359:	48 89 6c 24 60       	mov    %rbp,0x60(%rsp)
    835e:	48 89 5c 24 58       	mov    %rbx,0x58(%rsp)
    8363:	44 89 74 24 68       	mov    %r14d,0x68(%rsp)
    8368:	74 4a                	je     83b4 <_Z23run_symbolic_regressionRKNSt7__cxx1112basic_stringIcSt11char_traitsIcESaIcEEE+0x544>
	if (__n > this->_M_max_size())
    836a:	4c 39 e7             	cmp    %r12,%rdi
    836d:	0f 87 57 1b 00 00    	ja     9eca <_Z23run_symbolic_regressionRKNSt7__cxx1112basic_stringIcSt11char_traitsIcESaIcEEE+0x205a>
	return static_cast<_Tp*>(::operator new(__n * sizeof(_Tp)));
    8373:	e8 e8 f3 00 00       	callq  17760 <_Znwm@plt>
    8378:	48 89 84 24 a8 00 00 	mov    %rax,0xa8(%rsp)
    837f:	00 
    8380:	48 8b b4 24 70 02 00 	mov    0x270(%rsp),%rsi
    8387:	00 
    8388:	48 8b 94 24 78 02 00 	mov    0x278(%rsp),%rdx
    838f:	00 
	  if (_Num)
    8390:	48 29 f2             	sub    %rsi,%rdx
    8393:	48 89 94 24 a0 00 00 	mov    %rdx,0xa0(%rsp)
    839a:	00 
    839b:	74 2b                	je     83c8 <_Z23run_symbolic_regressionRKNSt7__cxx1112basic_stringIcSt11char_traitsIcESaIcEEE+0x558>
    839d:	48 8b bc 24 a8 00 00 	mov    0xa8(%rsp),%rdi
    83a4:	00 
	    __builtin_memmove(__result, __first, sizeof(_Tp) * _Num);
    83a5:	e8 b6 f5 00 00       	callq  17960 <memmove@plt>
    83aa:	c7 44 24 14 00 00 00 	movl   $0x0,0x14(%rsp)
    83b1:	00 
    83b2:	eb 14                	jmp    83c8 <_Z23run_symbolic_regressionRKNSt7__cxx1112basic_stringIcSt11char_traitsIcESaIcEEE+0x558>
    83b4:	31 c0                	xor    %eax,%eax
    83b6:	48 89 84 24 a0 00 00 	mov    %rax,0xa0(%rsp)
    83bd:	00 
    83be:	31 c0                	xor    %eax,%eax
    83c0:	48 89 84 24 a8 00 00 	mov    %rax,0xa8(%rsp)
    83c7:	00 
    83c8:	48 b9 ff ff ff ff ff 	movabs $0x1fffffffffffffff,%rcx
    83cf:	ff ff 1f 
    83d2:	48 8b 54 24 18       	mov    0x18(%rsp),%rdx
    83d7:	4c 8b 74 24 28       	mov    0x28(%rsp),%r14
    { return __lhs.base() == __rhs.base(); }
    83dc:	4c 39 f2             	cmp    %r14,%rdx
        if (data.empty())
    83df:	0f 84 99 00 00 00    	je     847e <_Z23run_symbolic_regressionRKNSt7__cxx1112basic_stringIcSt11char_traitsIcESaIcEEE+0x60e>
      { return size_type(this->_M_impl._M_finish - this->_M_impl._M_start); }
    83e5:	49 29 d6             	sub    %rdx,%r14
    83e8:	49 c1 fe 03          	sar    $0x3,%r14
    83ec:	48 b8 ab aa aa aa aa 	movabs $0xaaaaaaaaaaaaaaab,%rax
    83f3:	aa aa aa 
    83f6:	4c 0f af f0          	imul   %rax,%r14
    83fa:	48 8b 32             	mov    (%rdx),%rsi
    83fd:	48 8b 52 08          	mov    0x8(%rdx),%rdx
    8401:	49 89 d4             	mov    %rdx,%r12
    8404:	49 29 f4             	sub    %rsi,%r12
    8407:	49 c1 fc 02          	sar    $0x2,%r12
        std::vector<float> flattened(rows * cols);
    840b:	4c 89 e3             	mov    %r12,%rbx
    840e:	49 0f af de          	imul   %r14,%rbx
	if (__n > _S_max_size(_Tp_alloc_type(__a)))
    8412:	48 39 cb             	cmp    %rcx,%rbx
    8415:	0f 87 b4 1a 00 00    	ja     9ecf <_Z23run_symbolic_regressionRKNSt7__cxx1112basic_stringIcSt11char_traitsIcESaIcEEE+0x205f>
	return __n != 0 ? _Tr::allocate(_M_impl, __n) : pointer();
    841b:	48 85 db             	test   %rbx,%rbx
    841e:	0f 84 df 0c 00 00    	je     9103 <_Z23run_symbolic_regressionRKNSt7__cxx1112basic_stringIcSt11char_traitsIcESaIcEEE+0x1293>
    8424:	48 89 54 24 78       	mov    %rdx,0x78(%rsp)
    8429:	48 89 74 24 20       	mov    %rsi,0x20(%rsp)
    842e:	48 8d 2c 9d 00 00 00 	lea    0x0(,%rbx,4),%rbp
    8435:	00 
    8436:	48 89 ef             	mov    %rbp,%rdi
    8439:	e8 22 f3 00 00       	callq  17760 <_Znwm@plt>
    843e:	c7 00 00 00 00 00    	movl   $0x0,(%rax)
      if (__n <= 0)
    8444:	48 83 fb 01          	cmp    $0x1,%rbx
    8448:	48 89 44 24 70       	mov    %rax,0x70(%rsp)
    844d:	74 15                	je     8464 <_Z23run_symbolic_regressionRKNSt7__cxx1112basic_stringIcSt11char_traitsIcESaIcEEE+0x5f4>
	      ++__first;
    844f:	48 89 c7             	mov    %rax,%rdi
    8452:	48 83 c7 04          	add    $0x4,%rdi
      for (; __first != __last; ++__first)
    8456:	48 83 c5 fc          	add    $0xfffffffffffffffc,%rbp
	*__first = __tmp;
    845a:	31 f6                	xor    %esi,%esi
    845c:	48 89 ea             	mov    %rbp,%rdx
    845f:	e8 2c f5 00 00       	callq  17990 <memset@plt>
    8464:	48 8b 6c 24 60       	mov    0x60(%rsp),%rbp
    8469:	48 8b 74 24 20       	mov    0x20(%rsp),%rsi
    846e:	48 8b 54 24 78       	mov    0x78(%rsp),%rdx
        for (size_t j = 0; j < cols; ++j) {
    8473:	48 39 f2             	cmp    %rsi,%rdx
    8476:	0f 85 97 0c 00 00    	jne    9113 <_Z23run_symbolic_regressionRKNSt7__cxx1112basic_stringIcSt11char_traitsIcESaIcEEE+0x12a3>
    847c:	eb 07                	jmp    8485 <_Z23run_symbolic_regressionRKNSt7__cxx1112basic_stringIcSt11char_traitsIcESaIcEEE+0x615>
    847e:	31 c0                	xor    %eax,%eax
    8480:	48 89 44 24 70       	mov    %rax,0x70(%rsp)
    8485:	4d 39 fd             	cmp    %r15,%r13
        if (data.empty())
    8488:	0f 84 9a 00 00 00    	je     8528 <_Z23run_symbolic_regressionRKNSt7__cxx1112basic_stringIcSt11char_traitsIcESaIcEEE+0x6b8>
      { return size_type(this->_M_impl._M_finish - this->_M_impl._M_start); }
    848e:	4d 29 ef             	sub    %r13,%r15
    8491:	49 c1 ff 03          	sar    $0x3,%r15
    8495:	48 b8 ab aa aa aa aa 	movabs $0xaaaaaaaaaaaaaaab,%rax
    849c:	aa aa aa 
    849f:	4c 0f af f8          	imul   %rax,%r15
    84a3:	49 8b 4d 00          	mov    0x0(%r13),%rcx
    84a7:	4d 8b 65 08          	mov    0x8(%r13),%r12
    84ab:	4d 89 e6             	mov    %r12,%r14
    84ae:	49 29 ce             	sub    %rcx,%r14
    84b1:	49 c1 fe 02          	sar    $0x2,%r14
        std::vector<float> flattened(rows * cols);
    84b5:	4c 89 f3             	mov    %r14,%rbx
    84b8:	49 0f af df          	imul   %r15,%rbx
	if (__n > _S_max_size(_Tp_alloc_type(__a)))
    84bc:	48 b8 ff ff ff ff ff 	movabs $0x1fffffffffffffff,%rax
    84c3:	ff ff 1f 
    84c6:	48 39 c3             	cmp    %rax,%rbx
    84c9:	0f 87 0c 1a 00 00    	ja     9edb <_Z23run_symbolic_regressionRKNSt7__cxx1112basic_stringIcSt11char_traitsIcESaIcEEE+0x206b>
	return __n != 0 ? _Tr::allocate(_M_impl, __n) : pointer();
    84cf:	48 85 db             	test   %rbx,%rbx
    84d2:	0f 84 37 0d 00 00    	je     920f <_Z23run_symbolic_regressionRKNSt7__cxx1112basic_stringIcSt11char_traitsIcESaIcEEE+0x139f>
    84d8:	48 89 4c 24 78       	mov    %rcx,0x78(%rsp)
    84dd:	48 8d 2c 9d 00 00 00 	lea    0x0(,%rbx,4),%rbp
    84e4:	00 
    84e5:	48 89 ef             	mov    %rbp,%rdi
    84e8:	e8 73 f2 00 00       	callq  17760 <_Znwm@plt>
    84ed:	c7 00 00 00 00 00    	movl   $0x0,(%rax)
      if (__n <= 0)
    84f3:	48 83 fb 01          	cmp    $0x1,%rbx
    84f7:	48 89 44 24 20       	mov    %rax,0x20(%rsp)
    84fc:	74 15                	je     8513 <_Z23run_symbolic_regressionRKNSt7__cxx1112basic_stringIcSt11char_traitsIcESaIcEEE+0x6a3>
    84fe:	48 89 c7             	mov    %rax,%rdi
    8501:	48 83 c7 04          	add    $0x4,%rdi
      for (; __first != __last; ++__first)
    8505:	48 83 c5 fc          	add    $0xfffffffffffffffc,%rbp
	*__first = __tmp;
    8509:	31 f6                	xor    %esi,%esi
    850b:	48 89 ea             	mov    %rbp,%rdx
    850e:	e8 7d f4 00 00       	callq  17990 <memset@plt>
    8513:	48 8b 6c 24 60       	mov    0x60(%rsp),%rbp
    8518:	48 8b 4c 24 78       	mov    0x78(%rsp),%rcx
        for (size_t j = 0; j < cols; ++j) {
    851d:	49 39 cc             	cmp    %rcx,%r12
    8520:	0f 85 f9 0c 00 00    	jne    921f <_Z23run_symbolic_regressionRKNSt7__cxx1112basic_stringIcSt11char_traitsIcESaIcEEE+0x13af>
    8526:	eb 07                	jmp    852f <_Z23run_symbolic_regressionRKNSt7__cxx1112basic_stringIcSt11char_traitsIcESaIcEEE+0x6bf>
    8528:	31 c0                	xor    %eax,%eax
    852a:	48 89 44 24 20       	mov    %rax,0x20(%rsp)
    852f:	49 bc fc ff ff ff ff 	movabs $0x7ffffffffffffffc,%r12
    8536:	ff ff 7f 
    8539:	4c 8b 74 24 58       	mov    0x58(%rsp),%r14
	if (__n > _S_max_size(_Tp_alloc_type(__a)))
    853e:	4d 39 e6             	cmp    %r12,%r14
    8541:	48 8b 5c 24 18       	mov    0x18(%rsp),%rbx
    8546:	0f 87 d8 18 00 00    	ja     9e24 <_Z23run_symbolic_regressionRKNSt7__cxx1112basic_stringIcSt11char_traitsIcESaIcEEE+0x1fb4>
	return __n != 0 ? _Tr::allocate(_M_impl, __n) : pointer();
    854c:	80 7c 24 68 00       	cmpb   $0x0,0x68(%rsp)
    8551:	74 09                	je     855c <_Z23run_symbolic_regressionRKNSt7__cxx1112basic_stringIcSt11char_traitsIcESaIcEEE+0x6ec>
    8553:	31 c0                	xor    %eax,%eax
    8555:	48 89 44 24 68       	mov    %rax,0x68(%rsp)
    855a:	eb 73                	jmp    85cf <_Z23run_symbolic_regressionRKNSt7__cxx1112basic_stringIcSt11char_traitsIcESaIcEEE+0x75f>
    855c:	4c 89 f7             	mov    %r14,%rdi
    855f:	e8 fc f1 00 00       	callq  17760 <_Znwm@plt>
      for (; __first != __last; ++__first)
    8564:	49 8d 4e fc          	lea    -0x4(%r14),%rcx
    8568:	48 89 c6             	mov    %rax,%rsi
    856b:	48 83 f9 1c          	cmp    $0x1c,%rcx
    856f:	48 89 44 24 68       	mov    %rax,0x68(%rsp)
    8574:	72 41                	jb     85b7 <_Z23run_symbolic_regressionRKNSt7__cxx1112basic_stringIcSt11char_traitsIcESaIcEEE+0x747>
    8576:	48 c1 e9 02          	shr    $0x2,%rcx
    857a:	48 ff c1             	inc    %rcx
    857d:	49 83 c4 fc          	add    $0xfffffffffffffffc,%r12
    8581:	49 21 cc             	and    %rcx,%r12
    8584:	4a 8d 34 a0          	lea    (%rax,%r12,4),%rsi
    8588:	31 d2                	xor    %edx,%edx
    858a:	0f 28 05 7f a2 ff ff 	movaps -0x5d81(%rip),%xmm0        # 2810 <_IO_stdin_used+0x120>
    8591:	66 66 66 66 66 66 2e 	data16 data16 data16 data16 data16 nopw %cs:0x0(%rax,%rax,1)
    8598:	0f 1f 84 00 00 00 00 
    859f:	00 
	*__first = __tmp;
    85a0:	0f 11 04 90          	movups %xmm0,(%rax,%rdx,4)
    85a4:	0f 11 44 90 10       	movups %xmm0,0x10(%rax,%rdx,4)
    85a9:	48 83 c2 08          	add    $0x8,%rdx
    85ad:	49 39 d4             	cmp    %rdx,%r12
    85b0:	75 ee                	jne    85a0 <_Z23run_symbolic_regressionRKNSt7__cxx1112basic_stringIcSt11char_traitsIcESaIcEEE+0x730>
      for (; __first != __last; ++__first)
    85b2:	4c 39 e1             	cmp    %r12,%rcx
    85b5:	74 18                	je     85cf <_Z23run_symbolic_regressionRKNSt7__cxx1112basic_stringIcSt11char_traitsIcESaIcEEE+0x75f>
    85b7:	48 89 c1             	mov    %rax,%rcx
    85ba:	4c 01 f1             	add    %r14,%rcx
    85bd:	0f 1f 00             	nopl   (%rax)
	*__first = __tmp;
    85c0:	c7 06 00 00 80 3f    	movl   $0x3f800000,(%rsi)
      for (; __first != __last; ++__first)
    85c6:	48 83 c6 04          	add    $0x4,%rsi
    85ca:	48 39 ce             	cmp    %rcx,%rsi
    85cd:	75 f1                	jne    85c0 <_Z23run_symbolic_regressionRKNSt7__cxx1112basic_stringIcSt11char_traitsIcESaIcEEE+0x750>
     * @note Unless otherwise mentioned, all the parameters below are applicable to
     *       all of classification, regression and transformation.
     */
    struct param {
        /** number of programs in each generation */
        int population_size = 1000;
    85cf:	0f 28 05 3a a1 ff ff 	movaps -0x5ec6(%rip),%xmm0        # 2710 <_IO_stdin_used+0x20>
    85d6:	0f 29 84 24 e0 00 00 	movaps %xmm0,0xe0(%rsp)
    85dd:	00 

        /**
         * number of programs that compete in the tournament to become part of next
         * generation
         */
        int tournament_size = 20;
    85de:	c7 84 24 f0 00 00 00 	movl   $0x14,0xf0(%rsp)
    85e5:	14 00 00 00 

        /** metric threshold used for early stopping */
        float stopping_criteria = 0.0f;
    85e9:	f2 0f 10 05 6f a1 ff 	movsd  -0x5e91(%rip),%xmm0        # 2760 <_IO_stdin_used+0x70>
    85f0:	ff 
    85f1:	f2 0f 11 84 24 f4 00 	movsd  %xmm0,0xf4(%rsp)
    85f8:	00 00 

        /** minimum/maximum value for `constant` nodes */
        float const_range[2] = {-1.0f, 1.0f};
    85fa:	0f 28 05 6f a1 ff ff 	movaps -0x5e91(%rip),%xmm0        # 2770 <_IO_stdin_used+0x80>
    8601:	0f 11 84 24 fc 00 00 	movups %xmm0,0xfc(%rsp)
    8608:	00 
	: _M_start(), _M_finish(), _M_end_of_storage()
    8609:	0f 57 c0             	xorps  %xmm0,%xmm0
    860c:	0f 29 84 24 10 01 00 	movaps %xmm0,0x110(%rsp)
    8613:	00 
    8614:	48 c7 84 24 20 01 00 	movq   $0x0,0x120(%rsp)
    861b:	00 00 00 00 00 
    8620:	bf 04 00 00 00       	mov    $0x4,%edi
    8625:	e8 36 f1 00 00       	callq  17760 <_Znwm@plt>
	    = this->_M_allocate(_S_check_init_len(__n, _M_get_Tp_allocator()));
    862a:	48 89 84 24 10 01 00 	mov    %rax,0x110(%rsp)
    8631:	00 
	  this->_M_impl._M_end_of_storage = this->_M_impl._M_start + __n;
    8632:	48 89 c1             	mov    %rax,%rcx
    8635:	48 83 c1 04          	add    $0x4,%rcx
    8639:	48 89 8c 24 20 01 00 	mov    %rcx,0x120(%rsp)
    8640:	00 
	    __builtin_memmove(__result, __first, sizeof(_Tp) * _Num);
    8641:	c7 00 02 08 04 0a    	movl   $0xa040802,(%rax)
	  this->_M_impl._M_finish =
    8647:	48 89 8c 24 18 01 00 	mov    %rcx,0x118(%rsp)
    864e:	00 
	: _M_start(), _M_finish(), _M_end_of_storage()
    864f:	0f 57 c0             	xorps  %xmm0,%xmm0
    8652:	0f 11 84 24 28 01 00 	movups %xmm0,0x128(%rsp)
    8659:	00 
    865a:	0f 11 84 24 38 01 00 	movups %xmm0,0x138(%rsp)
    8661:	00 
    8662:	0f 11 84 24 48 01 00 	movups %xmm0,0x148(%rsp)
    8669:	00 
    866a:	0f 11 84 24 58 01 00 	movups %xmm0,0x158(%rsp)
    8671:	00 
    8672:	48 c7 84 24 68 01 00 	movq   $0x0,0x168(%rsp)
    8679:	00 00 00 00 00 
    867e:	bf 04 00 00 00       	mov    $0x4,%edi
    8683:	e8 d8 f0 00 00       	callq  17760 <_Znwm@plt>
	    = this->_M_allocate(_S_check_init_len(__n, _M_get_Tp_allocator()));
    8688:	48 89 84 24 58 01 00 	mov    %rax,0x158(%rsp)
    868f:	00 
	  this->_M_impl._M_end_of_storage = this->_M_impl._M_start + __n;
    8690:	48 89 c1             	mov    %rax,%rcx
    8693:	48 83 c1 04          	add    $0x4,%rcx
    8697:	48 89 8c 24 68 01 00 	mov    %rcx,0x168(%rsp)
    869e:	00 
    869f:	c7 00 02 08 04 0a    	movl   $0xa040802,(%rax)
	  this->_M_impl._M_finish =
    86a5:	48 89 8c 24 60 01 00 	mov    %rcx,0x160(%rsp)
    86ac:	00 

        /** map of functions ordered by their arity */
        std::vector<node::type> arity_set[3]{
            {}, {}, {node::type::add, node::type::mul, node::type::div, node::type::sub}};
        /** transformation function to class probabilities (classification-only) */
        transformer_t transformer = transformer_t::sigmoid;
    86ad:	48 c7 84 24 70 01 00 	movq   $0x0,0x170(%rsp)
    86b4:	00 00 00 00 00 
        /** fitness metric */
        metric_t metric = metric_t::mae;
        /** penalization factor for large programs */
        float parsimony_coefficient = 0.001f;
    86b9:	0f 28 05 00 a1 ff ff 	movaps -0x5f00(%rip),%xmm0        # 27c0 <_IO_stdin_used+0xd0>
    86c0:	0f 11 84 24 78 01 00 	movups %xmm0,0x178(%rsp)
    86c7:	00 
	: _M_start(), _M_finish(), _M_end_of_storage()
    86c8:	0f 57 c0             	xorps  %xmm0,%xmm0
    86cb:	0f 11 84 24 98 01 00 	movups %xmm0,0x198(%rsp)
    86d2:	00 
    86d3:	48 c7 84 24 a8 01 00 	movq   $0x0,0x1a8(%rsp)
    86da:	00 00 00 00 00 
        int num_features;
        ///@todo: feature_names
        ///@todo: verbose

        /** random seed used for RNG */
        uint32_t random_state = 0xdead;
    86df:	48 c7 84 24 b4 01 00 	movq   $0xdead,0x1b4(%rsp)
    86e6:	00 ad de 00 00 

        /** Number of epochs for which the algorithm ran */
        int num_epochs = 0;

        /** Low memory flag for program history */
        bool low_memory = false;
    86eb:	c6 84 24 bc 01 00 00 	movb   $0x0,0x1bc(%rsp)
    86f2:	00 
    // Create weights (all 1.0)
    std::vector<float> sample_weights(y_train.size(), 1.0f);

    // Set parameters
    genetic::param params;
    params.population_size = 512;
    86f3:	c7 84 24 e0 00 00 00 	movl   $0x200,0xe0(%rsp)
    86fa:	00 02 00 00 
    86fe:	48 b8 10 00 00 00 04 	movabs $0x400000010,%rax
    8705:	00 00 00 
    params.generations     = 16;
    8708:	48 89 84 24 ec 00 00 	mov    %rax,0xec(%rsp)
    870f:	00 
    8710:	48 b8 02 00 00 00 06 	movabs $0x600000002,%rax
    8717:	00 00 00 
    params.tournament_size = 4;
    params.init_depth[0]   = 2;
    871a:	48 89 84 24 00 01 00 	mov    %rax,0x100(%rsp)
    8721:	00 
    params.init_depth[1]   = 6;
    params.init_method     = genetic::init_method_t::half_and_half;
    8722:	c7 84 24 08 01 00 00 	movl   $0x2,0x108(%rsp)
    8729:	02 00 00 00 
      { return size_type(this->_M_impl._M_finish - this->_M_impl._M_start); }
    872d:	48 8b 43 08          	mov    0x8(%rbx),%rax
    8731:	48 2b 03             	sub    (%rbx),%rax
    8734:	48 c1 e8 02          	shr    $0x2,%rax
    params.num_features    = X_train[0].size(); // Number of features
    8738:	89 84 24 b0 01 00 00 	mov    %eax,0x1b0(%rsp)
        float p_point_mutation = 0.01f;
    873f:	0f 28 05 da 9f ff ff 	movaps -0x6026(%rip),%xmm0        # 2720 <_IO_stdin_used+0x30>
    8746:	0f 11 84 24 88 01 00 	movups %xmm0,0x188(%rsp)
    874d:	00 
    874e:	48 b8 02 0a 08 0b 1c 	movabs $0x516131c0b080a02,%rax
    8755:	13 16 05 
    params.terminalRatio   = 0.05;
    // Function set
    {
        using namespace genetic;
        params.function_set = {node::type::add, node::type::sub,  node::type::mul,
    8758:	48 89 44 24 30       	mov    %rax,0x30(%rsp)
    875d:	c6 44 24 38 18       	movb   $0x18,0x38(%rsp)
			 - this->_M_impl._M_start); }
    8762:	4c 8b bc 24 10 01 00 	mov    0x110(%rsp),%r15
    8769:	00 
      { return size_type(this->_M_impl._M_end_of_storage
    876a:	48 8b 84 24 20 01 00 	mov    0x120(%rsp),%rax
    8771:	00 
			 - this->_M_impl._M_start); }
    8772:	4c 29 f8             	sub    %r15,%rax
	if (__len > capacity())
    8775:	48 83 f8 08          	cmp    $0x8,%rax
    8779:	77 51                	ja     87cc <_Z23run_symbolic_regressionRKNSt7__cxx1112basic_stringIcSt11char_traitsIcESaIcEEE+0x95c>
    877b:	bf 09 00 00 00       	mov    $0x9,%edi
    8780:	e8 db ef 00 00       	callq  17760 <_Znwm@plt>
    8785:	49 89 c7             	mov    %rax,%r15
    8788:	0f b6 44 24 38       	movzbl 0x38(%rsp),%eax
    878d:	41 88 47 08          	mov    %al,0x8(%r15)
    8791:	48 8b 44 24 30       	mov    0x30(%rsp),%rax
    8796:	49 89 07             	mov    %rax,(%r15)
	    _M_deallocate(this->_M_impl._M_start,
    8799:	48 8b bc 24 10 01 00 	mov    0x110(%rsp),%rdi
    87a0:	00 
	if (__p)
    87a1:	48 85 ff             	test   %rdi,%rdi
    87a4:	74 05                	je     87ab <_Z23run_symbolic_regressionRKNSt7__cxx1112basic_stringIcSt11char_traitsIcESaIcEEE+0x93b>
	::operator delete(__p
    87a6:	e8 15 ef 00 00       	callq  176c0 <_ZdlPv@plt>
	    this->_M_impl._M_start = __tmp;
    87ab:	4c 89 bc 24 10 01 00 	mov    %r15,0x110(%rsp)
    87b2:	00 
	    this->_M_impl._M_finish = this->_M_impl._M_start + __len;
    87b3:	49 83 c7 09          	add    $0x9,%r15
    87b7:	4c 89 bc 24 18 01 00 	mov    %r15,0x118(%rsp)
    87be:	00 
	    this->_M_impl._M_end_of_storage = this->_M_impl._M_finish;
    87bf:	4c 89 bc 24 20 01 00 	mov    %r15,0x120(%rsp)
    87c6:	00 
    87c7:	e9 81 00 00 00       	jmpq   884d <_Z23run_symbolic_regressionRKNSt7__cxx1112basic_stringIcSt11char_traitsIcESaIcEEE+0x9dd>
      { return size_type(this->_M_impl._M_finish - this->_M_impl._M_start); }
    87cc:	48 8b 84 24 18 01 00 	mov    0x118(%rsp),%rax
    87d3:	00 
    87d4:	49 89 c4             	mov    %rax,%r12
    87d7:	4d 29 fc             	sub    %r15,%r12
	else if (size() >= __len)
    87da:	49 83 fc 09          	cmp    $0x9,%r12
    87de:	73 46                	jae    8826 <_Z23run_symbolic_regressionRKNSt7__cxx1112basic_stringIcSt11char_traitsIcESaIcEEE+0x9b6>
	  if (_Num)
    87e0:	4c 39 f8             	cmp    %r15,%rax
    87e3:	74 18                	je     87fd <_Z23run_symbolic_regressionRKNSt7__cxx1112basic_stringIcSt11char_traitsIcESaIcEEE+0x98d>
    87e5:	48 8d 74 24 30       	lea    0x30(%rsp),%rsi
	    __builtin_memmove(__result, __first, sizeof(_Tp) * _Num);
    87ea:	4c 89 ff             	mov    %r15,%rdi
    87ed:	4c 89 e2             	mov    %r12,%rdx
    87f0:	e8 6b f1 00 00       	callq  17960 <memmove@plt>
    87f5:	4c 8b bc 24 18 01 00 	mov    0x118(%rsp),%r15
    87fc:	00 
    87fd:	41 be 09 00 00 00    	mov    $0x9,%r14d
	  const ptrdiff_t _Num = __last - __first;
    8803:	4d 29 e6             	sub    %r12,%r14
    8806:	4a 8d 34 24          	lea    (%rsp,%r12,1),%rsi
    880a:	48 83 c6 30          	add    $0x30,%rsi
	    __builtin_memmove(__result, __first, sizeof(_Tp) * _Num);
    880e:	4c 89 ff             	mov    %r15,%rdi
    8811:	4c 89 f2             	mov    %r14,%rdx
    8814:	e8 47 f1 00 00       	callq  17960 <memmove@plt>
	  return __result + _Num;
    8819:	4d 01 fe             	add    %r15,%r14
	    this->_M_impl._M_finish =
    881c:	4c 89 b4 24 18 01 00 	mov    %r14,0x118(%rsp)
    8823:	00 
    8824:	eb 27                	jmp    884d <_Z23run_symbolic_regressionRKNSt7__cxx1112basic_stringIcSt11char_traitsIcESaIcEEE+0x9dd>
	    __builtin_memmove(__result, __first, sizeof(_Tp) * _Num);
    8826:	48 8b 44 24 30       	mov    0x30(%rsp),%rax
    882b:	0f b6 4c 24 38       	movzbl 0x38(%rsp),%ecx
    8830:	41 88 4f 08          	mov    %cl,0x8(%r15)
    8834:	49 89 07             	mov    %rax,(%r15)
	  return __result + _Num;
    8837:	49 83 c7 09          	add    $0x9,%r15
      // Called by erase(q1,q2), clear(), resize(), _M_fill_assign,
      // _M_assign_aux.
      void
      _M_erase_at_end(pointer __pos) _GLIBCXX_NOEXCEPT
      {
	if (size_type __n = this->_M_impl._M_finish - __pos)
    883b:	4c 39 bc 24 18 01 00 	cmp    %r15,0x118(%rsp)
    8842:	00 
    8843:	74 08                	je     884d <_Z23run_symbolic_regressionRKNSt7__cxx1112basic_stringIcSt11char_traitsIcESaIcEEE+0x9dd>
	  {
	    std::_Destroy(__pos, this->_M_impl._M_finish,
			  _M_get_Tp_allocator());
	    this->_M_impl._M_finish = __pos;
    8845:	4c 89 bc 24 18 01 00 	mov    %r15,0x118(%rsp)
    884c:	00 
                               node::type::abs, node::type::sin,  node::type::cos,
                               node::type::exp, node::type::fdim, node::type::log};
        // Arity set
        params.arity_set[1] = {node::type::abs, node::type::sin, node::type::cos, node::type::exp,
    884d:	c7 44 24 30 0b 1c 13 	movl   $0x16131c0b,0x30(%rsp)
    8854:	16 
    8855:	c6 44 24 34 18       	movb   $0x18,0x34(%rsp)
			 - this->_M_impl._M_start); }
    885a:	4c 8b bc 24 40 01 00 	mov    0x140(%rsp),%r15
    8861:	00 
      { return size_type(this->_M_impl._M_end_of_storage
    8862:	48 8b 84 24 50 01 00 	mov    0x150(%rsp),%rax
    8869:	00 
			 - this->_M_impl._M_start); }
    886a:	4c 29 f8             	sub    %r15,%rax
	if (__len > capacity())
    886d:	48 83 f8 04          	cmp    $0x4,%rax
    8871:	77 50                	ja     88c3 <_Z23run_symbolic_regressionRKNSt7__cxx1112basic_stringIcSt11char_traitsIcESaIcEEE+0xa53>
	return static_cast<_Tp*>(::operator new(__n * sizeof(_Tp)));
    8873:	bf 05 00 00 00       	mov    $0x5,%edi
    8878:	e8 e3 ee 00 00       	callq  17760 <_Znwm@plt>
    887d:	49 89 c7             	mov    %rax,%r15
	    __builtin_memmove(__result, __first, sizeof(_Tp) * _Num);
    8880:	0f b6 44 24 34       	movzbl 0x34(%rsp),%eax
    8885:	41 88 47 04          	mov    %al,0x4(%r15)
    8889:	8b 44 24 30          	mov    0x30(%rsp),%eax
    888d:	41 89 07             	mov    %eax,(%r15)
	    _M_deallocate(this->_M_impl._M_start,
    8890:	48 8b bc 24 40 01 00 	mov    0x140(%rsp),%rdi
    8897:	00 
	if (__p)
    8898:	48 85 ff             	test   %rdi,%rdi
    889b:	74 05                	je     88a2 <_Z23run_symbolic_regressionRKNSt7__cxx1112basic_stringIcSt11char_traitsIcESaIcEEE+0xa32>
	::operator delete(__p
    889d:	e8 1e ee 00 00       	callq  176c0 <_ZdlPv@plt>
	    this->_M_impl._M_start = __tmp;
    88a2:	4c 89 bc 24 40 01 00 	mov    %r15,0x140(%rsp)
    88a9:	00 
	    this->_M_impl._M_finish = this->_M_impl._M_start + __len;
    88aa:	49 83 c7 05          	add    $0x5,%r15
    88ae:	4c 89 bc 24 48 01 00 	mov    %r15,0x148(%rsp)
    88b5:	00 
	    this->_M_impl._M_end_of_storage = this->_M_impl._M_finish;
    88b6:	4c 89 bc 24 50 01 00 	mov    %r15,0x150(%rsp)
    88bd:	00 
    88be:	e9 80 00 00 00       	jmpq   8943 <_Z23run_symbolic_regressionRKNSt7__cxx1112basic_stringIcSt11char_traitsIcESaIcEEE+0xad3>
      { return size_type(this->_M_impl._M_finish - this->_M_impl._M_start); }
    88c3:	48 8b 84 24 48 01 00 	mov    0x148(%rsp),%rax
    88ca:	00 
    88cb:	49 89 c4             	mov    %rax,%r12
    88ce:	4d 29 fc             	sub    %r15,%r12
	else if (size() >= __len)
    88d1:	49 83 fc 05          	cmp    $0x5,%r12
    88d5:	73 46                	jae    891d <_Z23run_symbolic_regressionRKNSt7__cxx1112basic_stringIcSt11char_traitsIcESaIcEEE+0xaad>
	  if (_Num)
    88d7:	4c 39 f8             	cmp    %r15,%rax
    88da:	74 18                	je     88f4 <_Z23run_symbolic_regressionRKNSt7__cxx1112basic_stringIcSt11char_traitsIcESaIcEEE+0xa84>
    88dc:	48 8d 74 24 30       	lea    0x30(%rsp),%rsi
	    __builtin_memmove(__result, __first, sizeof(_Tp) * _Num);
    88e1:	4c 89 ff             	mov    %r15,%rdi
    88e4:	4c 89 e2             	mov    %r12,%rdx
    88e7:	e8 74 f0 00 00       	callq  17960 <memmove@plt>
    88ec:	4c 8b bc 24 48 01 00 	mov    0x148(%rsp),%r15
    88f3:	00 
    88f4:	41 be 05 00 00 00    	mov    $0x5,%r14d
	  const ptrdiff_t _Num = __last - __first;
    88fa:	4d 29 e6             	sub    %r12,%r14
    88fd:	4a 8d 34 24          	lea    (%rsp,%r12,1),%rsi
    8901:	48 83 c6 30          	add    $0x30,%rsi
	    __builtin_memmove(__result, __first, sizeof(_Tp) * _Num);
    8905:	4c 89 ff             	mov    %r15,%rdi
    8908:	4c 89 f2             	mov    %r14,%rdx
    890b:	e8 50 f0 00 00       	callq  17960 <memmove@plt>
	  return __result + _Num;
    8910:	4d 01 fe             	add    %r15,%r14
	    this->_M_impl._M_finish =
    8913:	4c 89 b4 24 48 01 00 	mov    %r14,0x148(%rsp)
    891a:	00 
    891b:	eb 26                	jmp    8943 <_Z23run_symbolic_regressionRKNSt7__cxx1112basic_stringIcSt11char_traitsIcESaIcEEE+0xad3>
	    __builtin_memmove(__result, __first, sizeof(_Tp) * _Num);
    891d:	8b 44 24 30          	mov    0x30(%rsp),%eax
    8921:	0f b6 4c 24 34       	movzbl 0x34(%rsp),%ecx
    8926:	41 88 4f 04          	mov    %cl,0x4(%r15)
    892a:	41 89 07             	mov    %eax,(%r15)
	  return __result + _Num;
    892d:	49 83 c7 05          	add    $0x5,%r15
	if (size_type __n = this->_M_impl._M_finish - __pos)
    8931:	4c 39 bc 24 48 01 00 	cmp    %r15,0x148(%rsp)
    8938:	00 
    8939:	74 08                	je     8943 <_Z23run_symbolic_regressionRKNSt7__cxx1112basic_stringIcSt11char_traitsIcESaIcEEE+0xad3>
	    this->_M_impl._M_finish = __pos;
    893b:	4c 89 bc 24 48 01 00 	mov    %r15,0x148(%rsp)
    8942:	00 
                               node::type::log};
        params.arity_set[2] = {node::type::add, node::type::sub, node::type::mul, node::type::fdim};
    8943:	c7 44 24 30 02 0a 08 	movl   $0x5080a02,0x30(%rsp)
    894a:	05 
			 - this->_M_impl._M_start); }
    894b:	4c 8b bc 24 58 01 00 	mov    0x158(%rsp),%r15
    8952:	00 
      { return size_type(this->_M_impl._M_end_of_storage
    8953:	48 8b 84 24 68 01 00 	mov    0x168(%rsp),%rax
    895a:	00 
			 - this->_M_impl._M_start); }
    895b:	4c 29 f8             	sub    %r15,%rax
	if (__len > capacity())
    895e:	48 83 f8 03          	cmp    $0x3,%rax
    8962:	77 44                	ja     89a8 <_Z23run_symbolic_regressionRKNSt7__cxx1112basic_stringIcSt11char_traitsIcESaIcEEE+0xb38>
	return static_cast<_Tp*>(::operator new(__n * sizeof(_Tp)));
    8964:	bf 04 00 00 00       	mov    $0x4,%edi
    8969:	e8 f2 ed 00 00       	callq  17760 <_Znwm@plt>
    896e:	49 89 c6             	mov    %rax,%r14
	    __builtin_memmove(__result, __first, sizeof(_Tp) * _Num);
    8971:	8b 44 24 30          	mov    0x30(%rsp),%eax
    8975:	41 89 06             	mov    %eax,(%r14)
	    _M_deallocate(this->_M_impl._M_start,
    8978:	48 8b bc 24 58 01 00 	mov    0x158(%rsp),%rdi
    897f:	00 
	if (__p)
    8980:	48 85 ff             	test   %rdi,%rdi
    8983:	74 05                	je     898a <_Z23run_symbolic_regressionRKNSt7__cxx1112basic_stringIcSt11char_traitsIcESaIcEEE+0xb1a>
	::operator delete(__p
    8985:	e8 36 ed 00 00       	callq  176c0 <_ZdlPv@plt>
	    this->_M_impl._M_start = __tmp;
    898a:	4c 89 b4 24 58 01 00 	mov    %r14,0x158(%rsp)
    8991:	00 
	    this->_M_impl._M_finish = this->_M_impl._M_start + __len;
    8992:	49 83 c6 04          	add    $0x4,%r14
    8996:	4c 89 b4 24 60 01 00 	mov    %r14,0x160(%rsp)
    899d:	00 
	    this->_M_impl._M_end_of_storage = this->_M_impl._M_finish;
    899e:	4c 89 b4 24 68 01 00 	mov    %r14,0x168(%rsp)
    89a5:	00 
    89a6:	eb 77                	jmp    8a1f <_Z23run_symbolic_regressionRKNSt7__cxx1112basic_stringIcSt11char_traitsIcESaIcEEE+0xbaf>
      { return size_type(this->_M_impl._M_finish - this->_M_impl._M_start); }
    89a8:	48 8b 84 24 60 01 00 	mov    0x160(%rsp),%rax
    89af:	00 
    89b0:	49 89 c4             	mov    %rax,%r12
    89b3:	4d 29 fc             	sub    %r15,%r12
	else if (size() >= __len)
    89b6:	49 83 fc 04          	cmp    $0x4,%r12
    89ba:	73 46                	jae    8a02 <_Z23run_symbolic_regressionRKNSt7__cxx1112basic_stringIcSt11char_traitsIcESaIcEEE+0xb92>
	  if (_Num)
    89bc:	4c 39 f8             	cmp    %r15,%rax
    89bf:	74 18                	je     89d9 <_Z23run_symbolic_regressionRKNSt7__cxx1112basic_stringIcSt11char_traitsIcESaIcEEE+0xb69>
    89c1:	48 8d 74 24 30       	lea    0x30(%rsp),%rsi
	    __builtin_memmove(__result, __first, sizeof(_Tp) * _Num);
    89c6:	4c 89 ff             	mov    %r15,%rdi
    89c9:	4c 89 e2             	mov    %r12,%rdx
    89cc:	e8 8f ef 00 00       	callq  17960 <memmove@plt>
    89d1:	4c 8b bc 24 60 01 00 	mov    0x160(%rsp),%r15
    89d8:	00 
    89d9:	41 be 04 00 00 00    	mov    $0x4,%r14d
	  const ptrdiff_t _Num = __last - __first;
    89df:	4d 29 e6             	sub    %r12,%r14
    89e2:	4a 8d 34 24          	lea    (%rsp,%r12,1),%rsi
    89e6:	48 83 c6 30          	add    $0x30,%rsi
	    __builtin_memmove(__result, __first, sizeof(_Tp) * _Num);
    89ea:	4c 89 ff             	mov    %r15,%rdi
    89ed:	4c 89 f2             	mov    %r14,%rdx
    89f0:	e8 6b ef 00 00       	callq  17960 <memmove@plt>
	  return __result + _Num;
    89f5:	4d 01 fe             	add    %r15,%r14
	    this->_M_impl._M_finish =
    89f8:	4c 89 b4 24 60 01 00 	mov    %r14,0x160(%rsp)
    89ff:	00 
    8a00:	eb 1d                	jmp    8a1f <_Z23run_symbolic_regressionRKNSt7__cxx1112basic_stringIcSt11char_traitsIcESaIcEEE+0xbaf>
	    __builtin_memmove(__result, __first, sizeof(_Tp) * _Num);
    8a02:	8b 44 24 30          	mov    0x30(%rsp),%eax
    8a06:	41 89 07             	mov    %eax,(%r15)
	  return __result + _Num;
    8a09:	49 83 c7 04          	add    $0x4,%r15
	if (size_type __n = this->_M_impl._M_finish - __pos)
    8a0d:	4c 39 bc 24 60 01 00 	cmp    %r15,0x160(%rsp)
    8a14:	00 
    8a15:	74 08                	je     8a1f <_Z23run_symbolic_regressionRKNSt7__cxx1112basic_stringIcSt11char_traitsIcESaIcEEE+0xbaf>
	    this->_M_impl._M_finish = __pos;
    8a17:	4c 89 bc 24 60 01 00 	mov    %r15,0x160(%rsp)
    8a1e:	00 
    }

    params.metric                = genetic::metric_t::mse; // Use MSE as the fitness metric
    8a1f:	c7 84 24 74 01 00 00 	movl   $0x1,0x174(%rsp)
    8a26:	01 00 00 00 
    params.parsimony_coefficient = 0.00f;                  // Penalize complexity
    8a2a:	0f 28 05 4f 9d ff ff 	movaps -0x62b1(%rip),%xmm0        # 2780 <_IO_stdin_used+0x90>
    8a31:	0f 11 84 24 78 01 00 	movups %xmm0,0x178(%rsp)
    8a38:	00 
    params.p_crossover           = 0.80f;                  // High crossover probability
    params.p_subtree_mutation    = 0.05f;
    params.p_hoist_mutation      = 0.01f;
    params.p_point_mutation      = 0.01f;
    8a39:	c7 84 24 88 01 00 00 	movl   $0x3c23d70a,0x188(%rsp)
    8a40:	0a d7 23 3c 
    params.max_samples           = 1.0f;       // Use all samples
    8a44:	c7 84 24 90 01 00 00 	movl   $0x3f800000,0x190(%rsp)
    8a4b:	00 00 80 3f 
    params.random_state          = 2025000000; // For reproducibility
    8a4f:	c7 84 24 b4 01 00 00 	movl   $0x78b30c40,0x1b4(%rsp)
    8a56:	40 0c b3 78 
	__ostream_insert(__out, __s,
    8a5a:	48 8b 3d 87 03 01 00 	mov    0x10387(%rip),%rdi        # 18de8 <_ZSt4cout@GLIBCXX_3.4>
    8a61:	48 8d 35 59 9f ff ff 	lea    -0x60a7(%rip),%rsi        # 29c1 <_IO_stdin_used+0x2d1>
    8a68:	ba 21 00 00 00       	mov    $0x21,%edx
    8a6d:	e8 8e ec 00 00       	callq  17700 <_ZSt16__ostream_insertIcSt11char_traitsIcEERSt13basic_ostreamIT_T0_ES6_PKS3_l@plt>

    // Running the symbolic regression
    std::cout << "Training symbolic regressor with " << params.population_size
    8a72:	8b b4 24 e0 00 00 00 	mov    0xe0(%rsp),%esi
    8a79:	48 8b 3d 68 03 01 00 	mov    0x10368(%rip),%rdi        # 18de8 <_ZSt4cout@GLIBCXX_3.4>
    8a80:	e8 2b eb 00 00       	callq  175b0 <_ZNSolsEi@plt>
    8a85:	49 89 c6             	mov    %rax,%r14
    8a88:	48 8d 35 63 a0 ff ff 	lea    -0x5f9d(%rip),%rsi        # 2af2 <_IO_stdin_used+0x402>
    8a8f:	ba 15 00 00 00       	mov    $0x15,%edx
    8a94:	48 89 c7             	mov    %rax,%rdi
    8a97:	e8 64 ec 00 00       	callq  17700 <_ZSt16__ostream_insertIcSt11char_traitsIcEERSt13basic_ostreamIT_T0_ES6_PKS3_l@plt>
              << " population size and " << params.generations << " generations" << std::endl;
    8a9c:	8b b4 24 ec 00 00 00 	mov    0xec(%rsp),%esi
    8aa3:	4c 89 f7             	mov    %r14,%rdi
    8aa6:	e8 05 eb 00 00       	callq  175b0 <_ZNSolsEi@plt>
    8aab:	49 89 c7             	mov    %rax,%r15
    8aae:	48 8d 35 3c 9f ff ff 	lea    -0x60c4(%rip),%rsi        # 29f1 <_IO_stdin_used+0x301>
    8ab5:	ba 0c 00 00 00       	mov    $0xc,%edx
    8aba:	48 89 c7             	mov    %rax,%rdi
    8abd:	e8 3e ec 00 00       	callq  17700 <_ZSt16__ostream_insertIcSt11char_traitsIcEERSt13basic_ostreamIT_T0_ES6_PKS3_l@plt>
    { return flush(__os.put(__os.widen('\n'))); }
    8ac2:	49 8b 07             	mov    (%r15),%rax
    8ac5:	48 8b 40 e8          	mov    -0x18(%rax),%rax
      { return __check_facet(_M_ctype).widen(__c); }
    8ac9:	4d 8b b4 07 f0 00 00 	mov    0xf0(%r15,%rax,1),%r14
    8ad0:	00 
      if (!__f)
    8ad1:	4d 85 f6             	test   %r14,%r14
    8ad4:	0f 84 56 13 00 00    	je     9e30 <_Z23run_symbolic_regressionRKNSt7__cxx1112basic_stringIcSt11char_traitsIcESaIcEEE+0x1fc0>
	if (_M_widen_ok)
    8ada:	41 80 7e 38 00       	cmpb   $0x0,0x38(%r14)
    8adf:	74 07                	je     8ae8 <_Z23run_symbolic_regressionRKNSt7__cxx1112basic_stringIcSt11char_traitsIcESaIcEEE+0xc78>
	  return _M_widen[static_cast<unsigned char>(__c)];
    8ae1:	41 0f b6 46 43       	movzbl 0x43(%r14),%eax
    8ae6:	eb 16                	jmp    8afe <_Z23run_symbolic_regressionRKNSt7__cxx1112basic_stringIcSt11char_traitsIcESaIcEEE+0xc8e>
	this->_M_widen_init();
    8ae8:	4c 89 f7             	mov    %r14,%rdi
    8aeb:	e8 40 ec 00 00       	callq  17730 <_ZNKSt5ctypeIcE13_M_widen_initEv@plt>
	return this->do_widen(__c);
    8af0:	49 8b 06             	mov    (%r14),%rax
    8af3:	4c 89 f7             	mov    %r14,%rdi
    8af6:	be 0a 00 00 00       	mov    $0xa,%esi
    8afb:	ff 50 30             	callq  *0x30(%rax)
    8afe:	0f be f0             	movsbl %al,%esi
    8b01:	4c 89 ff             	mov    %r15,%rdi
    8b04:	e8 17 ec 00 00       	callq  17720 <_ZNSo3putEc@plt>
    { return __os.flush(); }
    8b09:	48 89 c7             	mov    %rax,%rdi
    8b0c:	e8 2f ec 00 00       	callq  17740 <_ZNSo5flushEv@plt>

    // Create history vector to store programs
    genetic::program_t final_programs;
    final_programs = new genetic::program[params.population_size]();
    8b11:	4c 63 b4 24 e0 00 00 	movslq 0xe0(%rsp),%r14
    8b18:	00 
    8b19:	4c 89 f3             	mov    %r14,%rbx
    8b1c:	48 c1 e3 05          	shl    $0x5,%rbx
    8b20:	48 8d 43 08          	lea    0x8(%rbx),%rax
    8b24:	4d 85 f6             	test   %r14,%r14
    8b27:	48 c7 c7 ff ff ff ff 	mov    $0xffffffffffffffff,%rdi
    8b2e:	48 0f 49 f8          	cmovns %rax,%rdi
    8b32:	e8 29 eb 00 00       	callq  17660 <_Znam@plt>
    8b37:	49 89 c4             	mov    %rax,%r12
    8b3a:	4c 89 30             	mov    %r14,(%rax)
    8b3d:	4c 8d 78 08          	lea    0x8(%rax),%r15
    8b41:	45 85 f6             	test   %r14d,%r14d
    8b44:	74 1f                	je     8b65 <_Z23run_symbolic_regressionRKNSt7__cxx1112basic_stringIcSt11char_traitsIcESaIcEEE+0xcf5>
    8b46:	48 f7 db             	neg    %rbx
    8b49:	45 31 ed             	xor    %r13d,%r13d
    8b4c:	4d 89 fe             	mov    %r15,%r14
    8b4f:	90                   	nop
    8b50:	4c 89 f7             	mov    %r14,%rdi
    8b53:	e8 a8 51 00 00       	callq  dd00 <_ZN7genetic7programC1Ev>
    8b58:	49 83 c5 e0          	add    $0xffffffffffffffe0,%r13
    8b5c:	49 83 c6 20          	add    $0x20,%r14
    8b60:	4c 39 eb             	cmp    %r13,%rbx
    8b63:	75 eb                	jne    8b50 <_Z23run_symbolic_regressionRKNSt7__cxx1112basic_stringIcSt11char_traitsIcESaIcEEE+0xce0>
    8b65:	4c 89 7c 24 50       	mov    %r15,0x50(%rsp)
	: _M_start(), _M_finish(), _M_end_of_storage()
    8b6a:	0f 57 c0             	xorps  %xmm0,%xmm0
    8b6d:	0f 29 84 24 c0 01 00 	movaps %xmm0,0x1c0(%rsp)
    8b74:	00 
    8b75:	48 c7 84 24 d0 01 00 	movq   $0x0,0x1d0(%rsp)
    8b7c:	00 00 00 00 00 
    8b81:	48 8b 44 24 28       	mov    0x28(%rsp),%rax
      { return size_type(this->_M_impl._M_finish - this->_M_impl._M_start); }
    8b86:	48 2b 44 24 18       	sub    0x18(%rsp),%rax
    8b8b:	48 c1 e8 03          	shr    $0x3,%rax
    8b8f:	69 c8 ab aa aa aa    	imul   $0xaaaaaaab,%eax,%ecx
    8b95:	48 8d 84 24 c0 01 00 	lea    0x1c0(%rsp),%rax
    8b9c:	00 
    std::vector<std::vector<genetic::program>> history;

    // Train the model
    genetic::symFit(X_train_flat.data(), y_train.data(), sample_weights.data(),
    8b9d:	48 89 04 24          	mov    %rax,(%rsp)
    8ba1:	4c 8d 84 24 e0 00 00 	lea    0xe0(%rsp),%r8
    8ba8:	00 
    8ba9:	4c 8d 4c 24 50       	lea    0x50(%rsp),%r9
    8bae:	48 8b 7c 24 70       	mov    0x70(%rsp),%rdi
    8bb3:	48 89 ee             	mov    %rbp,%rsi
    8bb6:	48 8b 54 24 68       	mov    0x68(%rsp),%rdx
    8bbb:	e8 10 c9 00 00       	callq  154d0 <_ZN7genetic6symFitEPKfS1_S1_iRNS_5paramERPNS_7programERSt6vectorIS7_IS4_SaIS4_EESaIS9_EE>
    //             << std::endl;
    // }

    // Predict on top 2 candidates
    // insertionSortPrograms(final_programs, params.population_size);
    auto [idx1, idx2] = selectTop2(final_programs, params.population_size);
    8bc0:	8b 8c 24 e0 00 00 00 	mov    0xe0(%rsp),%ecx
    for (int i = 1; i < size; i++) {
    8bc7:	83 f9 02             	cmp    $0x2,%ecx
    8bca:	7c 4b                	jl     8c17 <_Z23run_symbolic_regressionRKNSt7__cxx1112basic_stringIcSt11char_traitsIcESaIcEEE+0xda7>
    auto [idx1, idx2] = selectTop2(final_programs, params.population_size);
    8bcc:	48 8b 44 24 50       	mov    0x50(%rsp),%rax
    float   rf1 = programs[0].raw_fitness_;
    8bd1:	f3 0f 10 40 10       	movss  0x10(%rax),%xmm0
    for (int i = 1; i < size; i++) {
    8bd6:	48 8d 51 ff          	lea    -0x1(%rcx),%rdx
    8bda:	48 83 f9 02          	cmp    $0x2,%rcx
    8bde:	0f 85 01 02 00 00    	jne    8de5 <_Z23run_symbolic_regressionRKNSt7__cxx1112basic_stringIcSt11char_traitsIcESaIcEEE+0xf75>
    8be4:	b9 01 00 00 00       	mov    $0x1,%ecx
    8be9:	31 ed                	xor    %ebp,%ebp
    8beb:	0f 28 c8             	movaps %xmm0,%xmm1
    8bee:	45 31 c0             	xor    %r8d,%r8d
    8bf1:	4d 89 c6             	mov    %r8,%r14
        if (rf < rf1) {
    8bf4:	f6 c2 01             	test   $0x1,%dl
    8bf7:	74 23                	je     8c1c <_Z23run_symbolic_regressionRKNSt7__cxx1112basic_stringIcSt11char_traitsIcESaIcEEE+0xdac>
        float rf = programs[i].raw_fitness_;
    8bf9:	48 89 ca             	mov    %rcx,%rdx
    8bfc:	48 c1 e2 05          	shl    $0x5,%rdx
    8c00:	f3 0f 10 54 10 10    	movss  0x10(%rax,%rdx,1),%xmm2
        if (rf < rf1) {
    8c06:	0f 2e c2             	ucomiss %xmm2,%xmm0
    8c09:	0f 86 ed 11 00 00    	jbe    9dfc <_Z23run_symbolic_regressionRKNSt7__cxx1112basic_stringIcSt11char_traitsIcESaIcEEE+0x1f8c>
    8c0f:	49 89 ce             	mov    %rcx,%r14
    8c12:	4c 89 c5             	mov    %r8,%rbp
    8c15:	eb 05                	jmp    8c1c <_Z23run_symbolic_regressionRKNSt7__cxx1112basic_stringIcSt11char_traitsIcESaIcEEE+0xdac>
    8c17:	45 31 f6             	xor    %r14d,%r14d
    8c1a:	31 ed                	xor    %ebp,%ebp
    8c1c:	48 8b 84 24 c8 00 00 	mov    0xc8(%rsp),%rax
    8c23:	00 
    8c24:	48 8b 8c 24 d0 00 00 	mov    0xd0(%rsp),%rcx
    8c2b:	00 
    8c2c:	49 89 cd             	mov    %rcx,%r13
    8c2f:	49 29 c5             	sub    %rax,%r13
    8c32:	4c 89 eb             	mov    %r13,%rbx
    8c35:	48 c1 fb 03          	sar    $0x3,%rbx
    8c39:	48 ba ab aa aa aa aa 	movabs $0xaaaaaaaaaaaaaaab,%rdx
    8c40:	aa aa aa 
    8c43:	48 0f af da          	imul   %rdx,%rbx
	if (__n > _S_max_size(_Tp_alloc_type(__a)))
    8c47:	48 ba ff ff ff ff ff 	movabs $0x1fffffffffffffff,%rdx
    8c4e:	ff ff 1f 
    8c51:	48 39 d3             	cmp    %rdx,%rbx
    8c54:	0f 87 db 11 00 00    	ja     9e35 <_Z23run_symbolic_regressionRKNSt7__cxx1112basic_stringIcSt11char_traitsIcESaIcEEE+0x1fc5>
	return __n != 0 ? _Tr::allocate(_M_impl, __n) : pointer();
    8c5a:	48 39 c1             	cmp    %rax,%rcx
    8c5d:	74 43                	je     8ca2 <_Z23run_symbolic_regressionRKNSt7__cxx1112basic_stringIcSt11char_traitsIcESaIcEEE+0xe32>
	return static_cast<_Tp*>(::operator new(__n * sizeof(_Tp)));
    8c5f:	4c 8d 3c 9d 00 00 00 	lea    0x0(,%rbx,4),%r15
    8c66:	00 
    8c67:	4c 89 ff             	mov    %r15,%rdi
    8c6a:	e8 f1 ea 00 00       	callq  17760 <_Znwm@plt>
    8c6f:	48 89 c1             	mov    %rax,%rcx
    8c72:	c7 00 00 00 00 00    	movl   $0x0,(%rax)
    8c78:	4c 8d 60 04          	lea    0x4(%rax),%r12
      if (__n <= 0)
    8c7c:	49 83 fd 18          	cmp    $0x18,%r13
    8c80:	74 25                	je     8ca7 <_Z23run_symbolic_regressionRKNSt7__cxx1112basic_stringIcSt11char_traitsIcESaIcEEE+0xe37>
	this->_M_impl._M_end_of_storage = this->_M_impl._M_start + __n;
    8c82:	4c 8d 2c 99          	lea    (%rcx,%rbx,4),%r13
      for (; __first != __last; ++__first)
    8c86:	49 83 c7 fc          	add    $0xfffffffffffffffc,%r15
	*__first = __tmp;
    8c8a:	4c 89 e7             	mov    %r12,%rdi
    8c8d:	31 f6                	xor    %esi,%esi
    8c8f:	4c 89 fa             	mov    %r15,%rdx
    8c92:	49 89 cf             	mov    %rcx,%r15
    8c95:	e8 f6 ec 00 00       	callq  17990 <memset@plt>
    8c9a:	4c 89 f9             	mov    %r15,%rcx
    8c9d:	4d 89 ec             	mov    %r13,%r12
    8ca0:	eb 05                	jmp    8ca7 <_Z23run_symbolic_regressionRKNSt7__cxx1112basic_stringIcSt11char_traitsIcESaIcEEE+0xe37>
    8ca2:	31 c9                	xor    %ecx,%ecx
    8ca4:	45 31 e4             	xor    %r12d,%r12d

    std::vector<float> y_pred1(X_test.size());
    genetic::symRegPredict(X_test_flat.data(), X_test.size(), &final_programs[idx1],
    8ca7:	49 c1 e6 05          	shl    $0x5,%r14
    8cab:	4c 03 74 24 50       	add    0x50(%rsp),%r14
    8cb0:	4c 89 74 24 30       	mov    %r14,0x30(%rsp)
    8cb5:	48 8d 54 24 30       	lea    0x30(%rsp),%rdx
    8cba:	48 8b 7c 24 20       	mov    0x20(%rsp),%rdi
    8cbf:	89 de                	mov    %ebx,%esi
    8cc1:	48 89 4c 24 18       	mov    %rcx,0x18(%rsp)
    8cc6:	e8 95 ce 00 00       	callq  15b60 <_ZN7genetic13symRegPredictEPKfiRKPNS_7programEPf>
      { return size_type(this->_M_impl._M_finish - this->_M_impl._M_start); }
    8ccb:	48 8b 84 24 c8 00 00 	mov    0xc8(%rsp),%rax
    8cd2:	00 
    8cd3:	48 8b 8c 24 d0 00 00 	mov    0xd0(%rsp),%rcx
    8cda:	00 
    8cdb:	49 89 cf             	mov    %rcx,%r15
    8cde:	49 29 c7             	sub    %rax,%r15
    8ce1:	4d 89 fd             	mov    %r15,%r13
    8ce4:	49 c1 fd 03          	sar    $0x3,%r13
    8ce8:	48 ba ab aa aa aa aa 	movabs $0xaaaaaaaaaaaaaaab,%rdx
    8cef:	aa aa aa 
    8cf2:	4c 0f af ea          	imul   %rdx,%r13
	if (__n > _S_max_size(_Tp_alloc_type(__a)))
    8cf6:	48 ba ff ff ff ff ff 	movabs $0x1fffffffffffffff,%rdx
    8cfd:	ff ff 1f 
    8d00:	49 39 d5             	cmp    %rdx,%r13
    8d03:	0f 87 38 11 00 00    	ja     9e41 <_Z23run_symbolic_regressionRKNSt7__cxx1112basic_stringIcSt11char_traitsIcESaIcEEE+0x1fd1>
	return __n != 0 ? _Tr::allocate(_M_impl, __n) : pointer();
    8d09:	48 39 c1             	cmp    %rax,%rcx
    8d0c:	74 30                	je     8d3e <_Z23run_symbolic_regressionRKNSt7__cxx1112basic_stringIcSt11char_traitsIcESaIcEEE+0xece>
    8d0e:	4e 8d 34 ad 00 00 00 	lea    0x0(,%r13,4),%r14
    8d15:	00 
    8d16:	4c 89 f7             	mov    %r14,%rdi
    8d19:	e8 42 ea 00 00       	callq  17760 <_Znwm@plt>
    8d1e:	48 89 c3             	mov    %rax,%rbx
    8d21:	c7 00 00 00 00 00    	movl   $0x0,(%rax)
    8d27:	48 8d 78 04          	lea    0x4(%rax),%rdi
      if (__n <= 0)
    8d2b:	49 83 ff 18          	cmp    $0x18,%r15
    8d2f:	75 14                	jne    8d45 <_Z23run_symbolic_regressionRKNSt7__cxx1112basic_stringIcSt11char_traitsIcESaIcEEE+0xed5>
    8d31:	4c 8b b4 24 a0 00 00 	mov    0xa0(%rsp),%r14
    8d38:	00 
    8d39:	49 89 ff             	mov    %rdi,%r15
    8d3c:	eb 21                	jmp    8d5f <_Z23run_symbolic_regressionRKNSt7__cxx1112basic_stringIcSt11char_traitsIcESaIcEEE+0xeef>
    8d3e:	31 db                	xor    %ebx,%ebx
    8d40:	45 31 ff             	xor    %r15d,%r15d
    8d43:	eb 12                	jmp    8d57 <_Z23run_symbolic_regressionRKNSt7__cxx1112basic_stringIcSt11char_traitsIcESaIcEEE+0xee7>
	this->_M_impl._M_end_of_storage = this->_M_impl._M_start + __n;
    8d45:	4e 8d 3c ab          	lea    (%rbx,%r13,4),%r15
      for (; __first != __last; ++__first)
    8d49:	49 83 c6 fc          	add    $0xfffffffffffffffc,%r14
	*__first = __tmp;
    8d4d:	31 f6                	xor    %esi,%esi
    8d4f:	4c 89 f2             	mov    %r14,%rdx
    8d52:	e8 39 ec 00 00       	callq  17990 <memset@plt>
    8d57:	4c 8b b4 24 a0 00 00 	mov    0xa0(%rsp),%r14
    8d5e:	00 
                           y_pred1.data());

    std::vector<float> y_pred2(X_test.size());
    genetic::symRegPredict(X_test_flat.data(), X_test.size(), &final_programs[idx2],
    8d5f:	48 c1 e5 05          	shl    $0x5,%rbp
    8d63:	48 03 6c 24 50       	add    0x50(%rsp),%rbp
    8d68:	48 89 6c 24 30       	mov    %rbp,0x30(%rsp)
    8d6d:	48 8d 54 24 30       	lea    0x30(%rsp),%rdx
    8d72:	48 8b 7c 24 20       	mov    0x20(%rsp),%rdi
    8d77:	44 89 ee             	mov    %r13d,%esi
    8d7a:	48 89 d9             	mov    %rbx,%rcx
    8d7d:	e8 de cd 00 00       	callq  15b60 <_ZN7genetic13symRegPredictEPKfiRKPNS_7programEPf>
    8d82:	4c 8b 44 24 18       	mov    0x18(%rsp),%r8
      { return size_type(this->_M_impl._M_finish - this->_M_impl._M_start); }
    8d87:	4d 29 c4             	sub    %r8,%r12
        if (y_true.size() != y_pred.size()) {
    8d8a:	4d 39 e6             	cmp    %r12,%r14
    8d8d:	4c 8b 6c 24 60       	mov    0x60(%rsp),%r13
    8d92:	48 8b ac 24 a8 00 00 	mov    0xa8(%rsp),%rbp
    8d99:	00 
    8d9a:	0f 85 ad 10 00 00    	jne    9e4d <_Z23run_symbolic_regressionRKNSt7__cxx1112basic_stringIcSt11char_traitsIcESaIcEEE+0x1fdd>
    8da0:	4c 89 f1             	mov    %r14,%rcx
    8da3:	48 c1 f9 02          	sar    $0x2,%rcx
        for (size_t i = 0; i < y_true.size(); ++i) {
    8da7:	80 7c 24 14 00       	cmpb   $0x0,0x14(%rsp)
    8dac:	74 13                	je     8dc1 <_Z23run_symbolic_regressionRKNSt7__cxx1112basic_stringIcSt11char_traitsIcESaIcEEE+0xf51>
        return sum / y_true.size();
    8dae:	48 85 c9             	test   %rcx,%rcx
    8db1:	0f 88 de 00 00 00    	js     8e95 <_Z23run_symbolic_regressionRKNSt7__cxx1112basic_stringIcSt11char_traitsIcESaIcEEE+0x1025>
    8db7:	f3 48 0f 2a c1       	cvtsi2ss %rcx,%xmm0
    8dbc:	e9 e9 00 00 00       	jmpq   8eaa <_Z23run_symbolic_regressionRKNSt7__cxx1112basic_stringIcSt11char_traitsIcESaIcEEE+0x103a>
        for (size_t i = 0; i < y_true.size(); ++i) {
    8dc1:	48 83 f9 01          	cmp    $0x1,%rcx
    8dc5:	48 89 c8             	mov    %rcx,%rax
    8dc8:	48 83 d0 00          	adc    $0x0,%rax
    8dcc:	89 c2                	mov    %eax,%edx
    8dce:	83 e2 03             	and    $0x3,%edx
    8dd1:	48 83 f9 04          	cmp    $0x4,%rcx
    8dd5:	0f 83 fb 00 00 00    	jae    8ed6 <_Z23run_symbolic_regressionRKNSt7__cxx1112basic_stringIcSt11char_traitsIcESaIcEEE+0x1066>
    8ddb:	0f 57 d2             	xorps  %xmm2,%xmm2
    8dde:	31 f6                	xor    %esi,%esi
    8de0:	e9 67 01 00 00       	jmpq   8f4c <_Z23run_symbolic_regressionRKNSt7__cxx1112basic_stringIcSt11char_traitsIcESaIcEEE+0x10dc>
    for (int i = 1; i < size; i++) {
    8de5:	48 8d 70 50          	lea    0x50(%rax),%rsi
    8de9:	48 89 d7             	mov    %rdx,%rdi
    8dec:	48 83 e7 fe          	and    $0xfffffffffffffffe,%rdi
    8df0:	48 f7 df             	neg    %rdi
    8df3:	b9 01 00 00 00       	mov    $0x1,%ecx
    8df8:	45 31 c9             	xor    %r9d,%r9d
    8dfb:	0f 28 c8             	movaps %xmm0,%xmm1
    8dfe:	45 31 c0             	xor    %r8d,%r8d
    8e01:	eb 36                	jmp    8e39 <_Z23run_symbolic_regressionRKNSt7__cxx1112basic_stringIcSt11char_traitsIcESaIcEEE+0xfc9>
    8e03:	66 66 66 66 2e 0f 1f 	data16 data16 data16 nopw %cs:0x0(%rax,%rax,1)
    8e0a:	84 00 00 00 00 00 
    8e10:	49 89 e8             	mov    %rbp,%r8
    8e13:	4c 89 d5             	mov    %r10,%rbp
    8e16:	0f 28 c8             	movaps %xmm0,%xmm1
    8e19:	0f 28 c2             	movaps %xmm2,%xmm0
    8e1c:	48 83 c6 40          	add    $0x40,%rsi
    8e20:	4c 8d 14 0f          	lea    (%rdi,%rcx,1),%r10
    8e24:	49 83 c2 02          	add    $0x2,%r10
    8e28:	48 83 c1 02          	add    $0x2,%rcx
    8e2c:	49 89 e9             	mov    %rbp,%r9
    8e2f:	49 83 fa 01          	cmp    $0x1,%r10
    8e33:	0f 84 b8 fd ff ff    	je     8bf1 <_Z23run_symbolic_regressionRKNSt7__cxx1112basic_stringIcSt11char_traitsIcESaIcEEE+0xd81>
        float rf = programs[i].raw_fitness_;
    8e39:	f3 0f 10 56 e0       	movss  -0x20(%rsi),%xmm2
        if (rf < rf1) {
    8e3e:	0f 2e c2             	ucomiss %xmm2,%xmm0
    8e41:	76 1d                	jbe    8e60 <_Z23run_symbolic_regressionRKNSt7__cxx1112basic_stringIcSt11char_traitsIcESaIcEEE+0xff0>
    8e43:	49 89 ca             	mov    %rcx,%r10
    8e46:	4d 89 c1             	mov    %r8,%r9
    8e49:	0f 28 c8             	movaps %xmm0,%xmm1
    8e4c:	0f 28 c2             	movaps %xmm2,%xmm0
    8e4f:	eb 1d                	jmp    8e6e <_Z23run_symbolic_regressionRKNSt7__cxx1112basic_stringIcSt11char_traitsIcESaIcEEE+0xffe>
    8e51:	66 66 66 66 66 66 2e 	data16 data16 data16 data16 data16 nopw %cs:0x0(%rax,%rax,1)
    8e58:	0f 1f 84 00 00 00 00 
    8e5f:	00 
    8e60:	4d 89 c2             	mov    %r8,%r10
        } else if (rf < rf2) {
    8e63:	0f 2e ca             	ucomiss %xmm2,%xmm1
    8e66:	76 06                	jbe    8e6e <_Z23run_symbolic_regressionRKNSt7__cxx1112basic_stringIcSt11char_traitsIcESaIcEEE+0xffe>
    8e68:	49 89 c9             	mov    %rcx,%r9
    8e6b:	0f 28 ca             	movaps %xmm2,%xmm1
        float rf = programs[i].raw_fitness_;
    8e6e:	48 8d 69 01          	lea    0x1(%rcx),%rbp
    8e72:	f3 0f 10 16          	movss  (%rsi),%xmm2
        if (rf < rf1) {
    8e76:	0f 2e c2             	ucomiss %xmm2,%xmm0
    8e79:	77 95                	ja     8e10 <_Z23run_symbolic_regressionRKNSt7__cxx1112basic_stringIcSt11char_traitsIcESaIcEEE+0xfa0>
    8e7b:	4d 89 d0             	mov    %r10,%r8
        } else if (rf < rf2) {
    8e7e:	0f 2e ca             	ucomiss %xmm2,%xmm1
    8e81:	76 0d                	jbe    8e90 <_Z23run_symbolic_regressionRKNSt7__cxx1112basic_stringIcSt11char_traitsIcESaIcEEE+0x1020>
    8e83:	0f 28 ca             	movaps %xmm2,%xmm1
    8e86:	eb 94                	jmp    8e1c <_Z23run_symbolic_regressionRKNSt7__cxx1112basic_stringIcSt11char_traitsIcESaIcEEE+0xfac>
    8e88:	0f 1f 84 00 00 00 00 	nopl   0x0(%rax,%rax,1)
    8e8f:	00 
    8e90:	4c 89 cd             	mov    %r9,%rbp
    8e93:	eb 87                	jmp    8e1c <_Z23run_symbolic_regressionRKNSt7__cxx1112basic_stringIcSt11char_traitsIcESaIcEEE+0xfac>
    8e95:	48 89 c8             	mov    %rcx,%rax
    8e98:	48 d1 e8             	shr    %rax
    8e9b:	83 e1 01             	and    $0x1,%ecx
    8e9e:	48 09 c1             	or     %rax,%rcx
    8ea1:	f3 48 0f 2a c1       	cvtsi2ss %rcx,%xmm0
    8ea6:	f3 0f 58 c0          	addss  %xmm0,%xmm0
    8eaa:	f3 0f 11 44 24 14    	movss  %xmm0,0x14(%rsp)
    8eb0:	49 29 df             	sub    %rbx,%r15
        if (y_true.size() != y_pred.size()) {
    8eb3:	4d 39 fe             	cmp    %r15,%r14
    8eb6:	0f 85 c3 0f 00 00    	jne    9e7f <_Z23run_symbolic_regressionRKNSt7__cxx1112basic_stringIcSt11char_traitsIcESaIcEEE+0x200f>
    8ebc:	0f 57 c0             	xorps  %xmm0,%xmm0
    8ebf:	f3 0f 11 44 24 58    	movss  %xmm0,0x58(%rsp)
    8ec5:	f3 0f 5e 44 24 14    	divss  0x14(%rsp),%xmm0
    8ecb:	f3 0f 11 44 24 28    	movss  %xmm0,0x28(%rsp)
    8ed1:	e9 ca 01 00 00       	jmpq   90a0 <_Z23run_symbolic_regressionRKNSt7__cxx1112basic_stringIcSt11char_traitsIcESaIcEEE+0x1230>
        for (size_t i = 0; i < y_true.size(); ++i) {
    8ed6:	48 89 c7             	mov    %rax,%rdi
    8ed9:	48 83 e7 fc          	and    $0xfffffffffffffffc,%rdi
    8edd:	0f 57 d2             	xorps  %xmm2,%xmm2
    8ee0:	31 f6                	xor    %esi,%esi
    8ee2:	66 66 66 66 66 2e 0f 	data16 data16 data16 data16 nopw %cs:0x0(%rax,%rax,1)
    8ee9:	1f 84 00 00 00 00 00 
            float diff = y_true[i] - y_pred[i];
    8ef0:	f3 0f 10 44 b5 00    	movss  0x0(%rbp,%rsi,4),%xmm0
    8ef6:	f3 0f 10 4c b5 04    	movss  0x4(%rbp,%rsi,4),%xmm1
    8efc:	f3 41 0f 5c 04 b0    	subss  (%r8,%rsi,4),%xmm0
            sum += diff * diff;
    8f02:	f3 0f 59 c0          	mulss  %xmm0,%xmm0
    8f06:	f3 0f 58 c2          	addss  %xmm2,%xmm0
            float diff = y_true[i] - y_pred[i];
    8f0a:	f3 41 0f 5c 4c b0 04 	subss  0x4(%r8,%rsi,4),%xmm1
            sum += diff * diff;
    8f11:	f3 0f 59 c9          	mulss  %xmm1,%xmm1
    8f15:	f3 0f 58 c8          	addss  %xmm0,%xmm1
            float diff = y_true[i] - y_pred[i];
    8f19:	f3 0f 10 44 b5 08    	movss  0x8(%rbp,%rsi,4),%xmm0
    8f1f:	f3 41 0f 5c 44 b0 08 	subss  0x8(%r8,%rsi,4),%xmm0
            sum += diff * diff;
    8f26:	f3 0f 59 c0          	mulss  %xmm0,%xmm0
    8f2a:	f3 0f 58 c1          	addss  %xmm1,%xmm0
            float diff = y_true[i] - y_pred[i];
    8f2e:	f3 0f 10 54 b5 0c    	movss  0xc(%rbp,%rsi,4),%xmm2
    8f34:	f3 41 0f 5c 54 b0 0c 	subss  0xc(%r8,%rsi,4),%xmm2
            sum += diff * diff;
    8f3b:	f3 0f 59 d2          	mulss  %xmm2,%xmm2
    8f3f:	f3 0f 58 d0          	addss  %xmm0,%xmm2
        for (size_t i = 0; i < y_true.size(); ++i) {
    8f43:	48 83 c6 04          	add    $0x4,%rsi
    8f47:	48 39 f7             	cmp    %rsi,%rdi
    8f4a:	75 a4                	jne    8ef0 <_Z23run_symbolic_regressionRKNSt7__cxx1112basic_stringIcSt11char_traitsIcESaIcEEE+0x1080>
    8f4c:	48 85 d2             	test   %rdx,%rdx
    8f4f:	74 3b                	je     8f8c <_Z23run_symbolic_regressionRKNSt7__cxx1112basic_stringIcSt11char_traitsIcESaIcEEE+0x111c>
    8f51:	49 8d 3c b0          	lea    (%r8,%rsi,4),%rdi
    8f55:	48 8d 34 b5 00 00 00 	lea    0x0(,%rsi,4),%rsi
    8f5c:	00 
    8f5d:	48 01 ee             	add    %rbp,%rsi
    8f60:	45 31 c0             	xor    %r8d,%r8d
    8f63:	66 66 66 66 2e 0f 1f 	data16 data16 data16 nopw %cs:0x0(%rax,%rax,1)
    8f6a:	84 00 00 00 00 00 
            float diff = y_true[i] - y_pred[i];
    8f70:	f3 42 0f 10 04 86    	movss  (%rsi,%r8,4),%xmm0
    8f76:	f3 42 0f 5c 04 87    	subss  (%rdi,%r8,4),%xmm0
            sum += diff * diff;
    8f7c:	f3 0f 59 c0          	mulss  %xmm0,%xmm0
    8f80:	f3 0f 58 d0          	addss  %xmm0,%xmm2
        for (size_t i = 0; i < y_true.size(); ++i) {
    8f84:	49 ff c0             	inc    %r8
    8f87:	4c 39 c2             	cmp    %r8,%rdx
    8f8a:	75 e4                	jne    8f70 <_Z23run_symbolic_regressionRKNSt7__cxx1112basic_stringIcSt11char_traitsIcESaIcEEE+0x1100>
    8f8c:	f3 0f 11 54 24 28    	movss  %xmm2,0x28(%rsp)
        return sum / y_true.size();
    8f92:	48 85 c9             	test   %rcx,%rcx
    8f95:	78 0a                	js     8fa1 <_Z23run_symbolic_regressionRKNSt7__cxx1112basic_stringIcSt11char_traitsIcESaIcEEE+0x1131>
    8f97:	0f 57 c0             	xorps  %xmm0,%xmm0
    8f9a:	f3 48 0f 2a c1       	cvtsi2ss %rcx,%xmm0
    8f9f:	eb 1a                	jmp    8fbb <_Z23run_symbolic_regressionRKNSt7__cxx1112basic_stringIcSt11char_traitsIcESaIcEEE+0x114b>
    8fa1:	48 89 ca             	mov    %rcx,%rdx
    8fa4:	48 d1 ea             	shr    %rdx
    8fa7:	89 ce                	mov    %ecx,%esi
    8fa9:	83 e6 01             	and    $0x1,%esi
    8fac:	48 09 d6             	or     %rdx,%rsi
    8faf:	0f 57 c0             	xorps  %xmm0,%xmm0
    8fb2:	f3 48 0f 2a c6       	cvtsi2ss %rsi,%xmm0
    8fb7:	f3 0f 58 c0          	addss  %xmm0,%xmm0
    8fbb:	f3 0f 11 44 24 14    	movss  %xmm0,0x14(%rsp)
    8fc1:	49 29 df             	sub    %rbx,%r15
        if (y_true.size() != y_pred.size()) {
    8fc4:	4d 39 fe             	cmp    %r15,%r14
    8fc7:	0f 85 b2 0e 00 00    	jne    9e7f <_Z23run_symbolic_regressionRKNSt7__cxx1112basic_stringIcSt11char_traitsIcESaIcEEE+0x200f>
        for (size_t i = 0; i < y_true.size(); ++i) {
    8fcd:	89 c2                	mov    %eax,%edx
    8fcf:	83 e2 03             	and    $0x3,%edx
    8fd2:	48 83 f9 04          	cmp    $0x4,%rcx
    8fd6:	73 07                	jae    8fdf <_Z23run_symbolic_regressionRKNSt7__cxx1112basic_stringIcSt11char_traitsIcESaIcEEE+0x116f>
    8fd8:	0f 57 d2             	xorps  %xmm2,%xmm2
    8fdb:	31 c9                	xor    %ecx,%ecx
    8fdd:	eb 69                	jmp    9048 <_Z23run_symbolic_regressionRKNSt7__cxx1112basic_stringIcSt11char_traitsIcESaIcEEE+0x11d8>
    8fdf:	48 83 e0 fc          	and    $0xfffffffffffffffc,%rax
    8fe3:	0f 57 d2             	xorps  %xmm2,%xmm2
    8fe6:	31 c9                	xor    %ecx,%ecx
    8fe8:	0f 1f 84 00 00 00 00 	nopl   0x0(%rax,%rax,1)
    8fef:	00 
            float diff = y_true[i] - y_pred[i];
    8ff0:	f3 0f 10 44 8d 00    	movss  0x0(%rbp,%rcx,4),%xmm0
    8ff6:	f3 0f 10 4c 8d 04    	movss  0x4(%rbp,%rcx,4),%xmm1
    8ffc:	f3 0f 5c 04 8b       	subss  (%rbx,%rcx,4),%xmm0
            sum += diff * diff;
    9001:	f3 0f 59 c0          	mulss  %xmm0,%xmm0
    9005:	f3 0f 58 c2          	addss  %xmm2,%xmm0
            float diff = y_true[i] - y_pred[i];
    9009:	f3 0f 5c 4c 8b 04    	subss  0x4(%rbx,%rcx,4),%xmm1
            sum += diff * diff;
    900f:	f3 0f 59 c9          	mulss  %xmm1,%xmm1
    9013:	f3 0f 58 c8          	addss  %xmm0,%xmm1
            float diff = y_true[i] - y_pred[i];
    9017:	f3 0f 10 44 8d 08    	movss  0x8(%rbp,%rcx,4),%xmm0
    901d:	f3 0f 5c 44 8b 08    	subss  0x8(%rbx,%rcx,4),%xmm0
            sum += diff * diff;
    9023:	f3 0f 59 c0          	mulss  %xmm0,%xmm0
    9027:	f3 0f 58 c1          	addss  %xmm1,%xmm0
            float diff = y_true[i] - y_pred[i];
    902b:	f3 0f 10 54 8d 0c    	movss  0xc(%rbp,%rcx,4),%xmm2
    9031:	f3 0f 5c 54 8b 0c    	subss  0xc(%rbx,%rcx,4),%xmm2
            sum += diff * diff;
    9037:	f3 0f 59 d2          	mulss  %xmm2,%xmm2
    903b:	f3 0f 58 d0          	addss  %xmm0,%xmm2
        for (size_t i = 0; i < y_true.size(); ++i) {
    903f:	48 83 c1 04          	add    $0x4,%rcx
    9043:	48 39 c8             	cmp    %rcx,%rax
    9046:	75 a8                	jne    8ff0 <_Z23run_symbolic_regressionRKNSt7__cxx1112basic_stringIcSt11char_traitsIcESaIcEEE+0x1180>
    9048:	f3 0f 11 54 24 58    	movss  %xmm2,0x58(%rsp)
    904e:	f3 0f 10 44 24 28    	movss  0x28(%rsp),%xmm0
    9054:	f3 0f 5e 44 24 14    	divss  0x14(%rsp),%xmm0
    905a:	f3 0f 11 44 24 28    	movss  %xmm0,0x28(%rsp)
    9060:	48 85 d2             	test   %rdx,%rdx
    9063:	74 3b                	je     90a0 <_Z23run_symbolic_regressionRKNSt7__cxx1112basic_stringIcSt11char_traitsIcESaIcEEE+0x1230>
    9065:	48 8d 04 8b          	lea    (%rbx,%rcx,4),%rax
    9069:	48 8d 0c 8d 00 00 00 	lea    0x0(,%rcx,4),%rcx
    9070:	00 
    9071:	48 01 e9             	add    %rbp,%rcx
    9074:	31 f6                	xor    %esi,%esi
    9076:	f3 0f 10 4c 24 58    	movss  0x58(%rsp),%xmm1
    907c:	0f 1f 40 00          	nopl   0x0(%rax)
            float diff = y_true[i] - y_pred[i];
    9080:	f3 0f 10 04 b1       	movss  (%rcx,%rsi,4),%xmm0
    9085:	f3 0f 5c 04 b0       	subss  (%rax,%rsi,4),%xmm0
            sum += diff * diff;
    908a:	f3 0f 59 c0          	mulss  %xmm0,%xmm0
    908e:	f3 0f 58 c8          	addss  %xmm0,%xmm1
        for (size_t i = 0; i < y_true.size(); ++i) {
    9092:	48 ff c6             	inc    %rsi
    9095:	48 39 f2             	cmp    %rsi,%rdx
    9098:	75 e6                	jne    9080 <_Z23run_symbolic_regressionRKNSt7__cxx1112basic_stringIcSt11char_traitsIcESaIcEEE+0x1210>
    909a:	f3 0f 11 4c 24 58    	movss  %xmm1,0x58(%rsp)
      : _M_current(__i) { }
    90a0:	48 8b 84 24 c8 01 00 	mov    0x1c8(%rsp),%rax
    90a7:	00 
    90a8:	48 8b 48 f0          	mov    -0x10(%rax),%rcx
    // Calculate MSE on test set
    float mse  = utils::mean_squared_error(y_test, y_pred1);
    float mse2 = utils::mean_squared_error(y_test, y_pred2);

    // Extract the best programs and print some stats
    if (history.back().size() > 0) {
    90ac:	48 3b 48 e8          	cmp    -0x18(%rax),%rcx
    90b0:	0f 84 76 08 00 00    	je     992c <_Z23run_symbolic_regressionRKNSt7__cxx1112basic_stringIcSt11char_traitsIcESaIcEEE+0x1abc>
        genetic::program_t best_program1 = &final_programs[0];
    90b6:	4c 8b 7c 24 50       	mov    0x50(%rsp),%r15
	__ostream_insert(__out, __s,
    90bb:	4c 8b 35 26 fd 00 00 	mov    0xfd26(%rip),%r14        # 18de8 <_ZSt4cout@GLIBCXX_3.4>
    90c2:	48 8d 35 57 97 ff ff 	lea    -0x68a9(%rip),%rsi        # 2820 <_IO_stdin_used+0x130>
    90c9:	ba 17 00 00 00       	mov    $0x17,%edx
    90ce:	4c 89 f7             	mov    %r14,%rdi
    90d1:	e8 2a e6 00 00       	callq  17700 <_ZSt16__ostream_insertIcSt11char_traitsIcEERSt13basic_ostreamIT_T0_ES6_PKS3_l@plt>
    { return flush(__os.put(__os.widen('\n'))); }
    90d6:	49 8b 06             	mov    (%r14),%rax
    90d9:	48 8b 40 e8          	mov    -0x18(%rax),%rax
      { return __check_facet(_M_ctype).widen(__c); }
    90dd:	4d 8b b4 06 f0 00 00 	mov    0xf0(%r14,%rax,1),%r14
    90e4:	00 
      if (!__f)
    90e5:	4d 85 f6             	test   %r14,%r14
    90e8:	0f 84 22 0d 00 00    	je     9e10 <_Z23run_symbolic_regressionRKNSt7__cxx1112basic_stringIcSt11char_traitsIcESaIcEEE+0x1fa0>
	if (_M_widen_ok)
    90ee:	41 80 7e 38 00       	cmpb   $0x0,0x38(%r14)
    90f3:	0f 84 26 02 00 00    	je     931f <_Z23run_symbolic_regressionRKNSt7__cxx1112basic_stringIcSt11char_traitsIcESaIcEEE+0x14af>
	  return _M_widen[static_cast<unsigned char>(__c)];
    90f9:	41 0f b6 46 43       	movzbl 0x43(%r14),%eax
    90fe:	e9 32 02 00 00       	jmpq   9335 <_Z23run_symbolic_regressionRKNSt7__cxx1112basic_stringIcSt11char_traitsIcESaIcEEE+0x14c5>
    9103:	31 c0                	xor    %eax,%eax
    9105:	48 89 44 24 70       	mov    %rax,0x70(%rsp)
        for (size_t j = 0; j < cols; ++j) {
    910a:	48 39 f2             	cmp    %rsi,%rdx
    910d:	0f 84 72 f3 ff ff    	je     8485 <_Z23run_symbolic_regressionRKNSt7__cxx1112basic_stringIcSt11char_traitsIcESaIcEEE+0x615>
    9113:	49 83 fe 01          	cmp    $0x1,%r14
    9117:	4c 89 f0             	mov    %r14,%rax
    911a:	48 83 d0 00          	adc    $0x0,%rax
    911e:	49 83 fc 01          	cmp    $0x1,%r12
    9122:	49 83 d4 00          	adc    $0x0,%r12
    9126:	89 c1                	mov    %eax,%ecx
    9128:	83 e1 03             	and    $0x3,%ecx
    912b:	48 83 e0 fc          	and    $0xfffffffffffffffc,%rax
    912f:	4c 8b 44 24 70       	mov    0x70(%rsp),%r8
    9134:	49 8d 50 0c          	lea    0xc(%r8),%rdx
    9138:	4a 8d 34 b5 00 00 00 	lea    0x0(,%r14,4),%rsi
    913f:	00 
    9140:	31 ff                	xor    %edi,%edi
    9142:	eb 1e                	jmp    9162 <_Z23run_symbolic_regressionRKNSt7__cxx1112basic_stringIcSt11char_traitsIcESaIcEEE+0x12f2>
    9144:	66 66 66 2e 0f 1f 84 	data16 data16 nopw %cs:0x0(%rax,%rax,1)
    914b:	00 00 00 00 00 
    9150:	48 ff c7             	inc    %rdi
    9153:	48 01 f2             	add    %rsi,%rdx
    9156:	49 01 f0             	add    %rsi,%r8
    9159:	4c 39 e7             	cmp    %r12,%rdi
    915c:	0f 84 23 f3 ff ff    	je     8485 <_Z23run_symbolic_regressionRKNSt7__cxx1112basic_stringIcSt11char_traitsIcESaIcEEE+0x615>
    9162:	49 83 fe 04          	cmp    $0x4,%r14
            for (size_t i = 0; i < rows; ++i) {
    9166:	73 08                	jae    9170 <_Z23run_symbolic_regressionRKNSt7__cxx1112basic_stringIcSt11char_traitsIcESaIcEEE+0x1300>
    9168:	45 31 c9             	xor    %r9d,%r9d
    916b:	eb 62                	jmp    91cf <_Z23run_symbolic_regressionRKNSt7__cxx1112basic_stringIcSt11char_traitsIcESaIcEEE+0x135f>
    916d:	0f 1f 00             	nopl   (%rax)
    9170:	4c 8b 54 24 18       	mov    0x18(%rsp),%r10
    9175:	45 31 c9             	xor    %r9d,%r9d
    9178:	0f 1f 84 00 00 00 00 	nopl   0x0(%rax,%rax,1)
    917f:	00 
	return *(this->_M_impl._M_start + __n);
    9180:	4d 8b 1a             	mov    (%r10),%r11
                flattened[j * rows + i] = data[i][j];
    9183:	f3 41 0f 10 04 bb    	movss  (%r11,%rdi,4),%xmm0
    9189:	f3 42 0f 11 44 8a f4 	movss  %xmm0,-0xc(%rdx,%r9,4)
    9190:	4d 8b 5a 18          	mov    0x18(%r10),%r11
    9194:	f3 41 0f 10 04 bb    	movss  (%r11,%rdi,4),%xmm0
    919a:	f3 42 0f 11 44 8a f8 	movss  %xmm0,-0x8(%rdx,%r9,4)
    91a1:	4d 8b 5a 30          	mov    0x30(%r10),%r11
    91a5:	f3 41 0f 10 04 bb    	movss  (%r11,%rdi,4),%xmm0
    91ab:	f3 42 0f 11 44 8a fc 	movss  %xmm0,-0x4(%rdx,%r9,4)
    91b2:	4d 8b 5a 48          	mov    0x48(%r10),%r11
    91b6:	f3 41 0f 10 04 bb    	movss  (%r11,%rdi,4),%xmm0
    91bc:	f3 42 0f 11 04 8a    	movss  %xmm0,(%rdx,%r9,4)
            for (size_t i = 0; i < rows; ++i) {
    91c2:	49 83 c1 04          	add    $0x4,%r9
    91c6:	49 83 c2 60          	add    $0x60,%r10
    91ca:	4c 39 c8             	cmp    %r9,%rax
    91cd:	75 b1                	jne    9180 <_Z23run_symbolic_regressionRKNSt7__cxx1112basic_stringIcSt11char_traitsIcESaIcEEE+0x1310>
    91cf:	48 85 c9             	test   %rcx,%rcx
    91d2:	0f 84 78 ff ff ff    	je     9150 <_Z23run_symbolic_regressionRKNSt7__cxx1112basic_stringIcSt11char_traitsIcESaIcEEE+0x12e0>
    91d8:	4f 8d 14 88          	lea    (%r8,%r9,4),%r10
    91dc:	4f 8d 0c 49          	lea    (%r9,%r9,2),%r9
    91e0:	4c 8b 5c 24 18       	mov    0x18(%rsp),%r11
    91e5:	4f 8d 0c cb          	lea    (%r11,%r9,8),%r9
    91e9:	45 31 db             	xor    %r11d,%r11d
    91ec:	0f 1f 40 00          	nopl   0x0(%rax)
    91f0:	49 8b 19             	mov    (%r9),%rbx
                flattened[j * rows + i] = data[i][j];
    91f3:	f3 0f 10 04 bb       	movss  (%rbx,%rdi,4),%xmm0
    91f8:	f3 43 0f 11 04 9a    	movss  %xmm0,(%r10,%r11,4)
            for (size_t i = 0; i < rows; ++i) {
    91fe:	49 ff c3             	inc    %r11
    9201:	49 83 c1 18          	add    $0x18,%r9
    9205:	4c 39 d9             	cmp    %r11,%rcx
    9208:	75 e6                	jne    91f0 <_Z23run_symbolic_regressionRKNSt7__cxx1112basic_stringIcSt11char_traitsIcESaIcEEE+0x1380>
    920a:	e9 41 ff ff ff       	jmpq   9150 <_Z23run_symbolic_regressionRKNSt7__cxx1112basic_stringIcSt11char_traitsIcESaIcEEE+0x12e0>
    920f:	31 c0                	xor    %eax,%eax
    9211:	48 89 44 24 20       	mov    %rax,0x20(%rsp)
        for (size_t j = 0; j < cols; ++j) {
    9216:	49 39 cc             	cmp    %rcx,%r12
    9219:	0f 84 10 f3 ff ff    	je     852f <_Z23run_symbolic_regressionRKNSt7__cxx1112basic_stringIcSt11char_traitsIcESaIcEEE+0x6bf>
    921f:	49 83 ff 01          	cmp    $0x1,%r15
    9223:	4c 89 f8             	mov    %r15,%rax
    9226:	48 83 d0 00          	adc    $0x0,%rax
    922a:	49 83 fe 01          	cmp    $0x1,%r14
    922e:	49 83 d6 00          	adc    $0x0,%r14
    9232:	89 c1                	mov    %eax,%ecx
    9234:	83 e1 03             	and    $0x3,%ecx
    9237:	48 83 e0 fc          	and    $0xfffffffffffffffc,%rax
    923b:	4c 8b 44 24 20       	mov    0x20(%rsp),%r8
    9240:	49 8d 50 0c          	lea    0xc(%r8),%rdx
    9244:	4a 8d 34 bd 00 00 00 	lea    0x0(,%r15,4),%rsi
    924b:	00 
    924c:	31 ff                	xor    %edi,%edi
    924e:	49 bc fc ff ff ff ff 	movabs $0x7ffffffffffffffc,%r12
    9255:	ff ff 7f 
    9258:	eb 18                	jmp    9272 <_Z23run_symbolic_regressionRKNSt7__cxx1112basic_stringIcSt11char_traitsIcESaIcEEE+0x1402>
    925a:	66 0f 1f 44 00 00    	nopw   0x0(%rax,%rax,1)
    9260:	48 ff c7             	inc    %rdi
    9263:	48 01 f2             	add    %rsi,%rdx
    9266:	49 01 f0             	add    %rsi,%r8
    9269:	4c 39 f7             	cmp    %r14,%rdi
    926c:	0f 84 c7 f2 ff ff    	je     8539 <_Z23run_symbolic_regressionRKNSt7__cxx1112basic_stringIcSt11char_traitsIcESaIcEEE+0x6c9>
    9272:	49 83 ff 04          	cmp    $0x4,%r15
            for (size_t i = 0; i < rows; ++i) {
    9276:	73 08                	jae    9280 <_Z23run_symbolic_regressionRKNSt7__cxx1112basic_stringIcSt11char_traitsIcESaIcEEE+0x1410>
    9278:	45 31 c9             	xor    %r9d,%r9d
    927b:	eb 62                	jmp    92df <_Z23run_symbolic_regressionRKNSt7__cxx1112basic_stringIcSt11char_traitsIcESaIcEEE+0x146f>
    927d:	0f 1f 00             	nopl   (%rax)
    9280:	4d 89 ea             	mov    %r13,%r10
    9283:	45 31 c9             	xor    %r9d,%r9d
    9286:	66 2e 0f 1f 84 00 00 	nopw   %cs:0x0(%rax,%rax,1)
    928d:	00 00 00 
    9290:	4d 8b 1a             	mov    (%r10),%r11
                flattened[j * rows + i] = data[i][j];
    9293:	f3 41 0f 10 04 bb    	movss  (%r11,%rdi,4),%xmm0
    9299:	f3 42 0f 11 44 8a f4 	movss  %xmm0,-0xc(%rdx,%r9,4)
    92a0:	4d 8b 5a 18          	mov    0x18(%r10),%r11
    92a4:	f3 41 0f 10 04 bb    	movss  (%r11,%rdi,4),%xmm0
    92aa:	f3 42 0f 11 44 8a f8 	movss  %xmm0,-0x8(%rdx,%r9,4)
    92b1:	4d 8b 5a 30          	mov    0x30(%r10),%r11
    92b5:	f3 41 0f 10 04 bb    	movss  (%r11,%rdi,4),%xmm0
    92bb:	f3 42 0f 11 44 8a fc 	movss  %xmm0,-0x4(%rdx,%r9,4)
    92c2:	4d 8b 5a 48          	mov    0x48(%r10),%r11
    92c6:	f3 41 0f 10 04 bb    	movss  (%r11,%rdi,4),%xmm0
    92cc:	f3 42 0f 11 04 8a    	movss  %xmm0,(%rdx,%r9,4)
            for (size_t i = 0; i < rows; ++i) {
    92d2:	49 83 c1 04          	add    $0x4,%r9
    92d6:	49 83 c2 60          	add    $0x60,%r10
    92da:	4c 39 c8             	cmp    %r9,%rax
    92dd:	75 b1                	jne    9290 <_Z23run_symbolic_regressionRKNSt7__cxx1112basic_stringIcSt11char_traitsIcESaIcEEE+0x1420>
    92df:	48 85 c9             	test   %rcx,%rcx
    92e2:	0f 84 78 ff ff ff    	je     9260 <_Z23run_symbolic_regressionRKNSt7__cxx1112basic_stringIcSt11char_traitsIcESaIcEEE+0x13f0>
    92e8:	4f 8d 14 88          	lea    (%r8,%r9,4),%r10
    92ec:	4f 8d 0c 49          	lea    (%r9,%r9,2),%r9
    92f0:	4e 8d 0c cd 00 00 00 	lea    0x0(,%r9,8),%r9
    92f7:	00 
    92f8:	4d 01 e9             	add    %r13,%r9
    92fb:	45 31 db             	xor    %r11d,%r11d
    92fe:	66 90                	xchg   %ax,%ax
    9300:	49 8b 19             	mov    (%r9),%rbx
                flattened[j * rows + i] = data[i][j];
    9303:	f3 0f 10 04 bb       	movss  (%rbx,%rdi,4),%xmm0
    9308:	f3 43 0f 11 04 9a    	movss  %xmm0,(%r10,%r11,4)
            for (size_t i = 0; i < rows; ++i) {
    930e:	49 ff c3             	inc    %r11
    9311:	49 83 c1 18          	add    $0x18,%r9
    9315:	4c 39 d9             	cmp    %r11,%rcx
    9318:	75 e6                	jne    9300 <_Z23run_symbolic_regressionRKNSt7__cxx1112basic_stringIcSt11char_traitsIcESaIcEEE+0x1490>
    931a:	e9 41 ff ff ff       	jmpq   9260 <_Z23run_symbolic_regressionRKNSt7__cxx1112basic_stringIcSt11char_traitsIcESaIcEEE+0x13f0>
	this->_M_widen_init();
    931f:	4c 89 f7             	mov    %r14,%rdi
    9322:	e8 09 e4 00 00       	callq  17730 <_ZNKSt5ctypeIcE13_M_widen_initEv@plt>
	return this->do_widen(__c);
    9327:	49 8b 06             	mov    (%r14),%rax
    932a:	4c 89 f7             	mov    %r14,%rdi
    932d:	be 0a 00 00 00       	mov    $0xa,%esi
    9332:	ff 50 30             	callq  *0x30(%rax)
    9335:	0f be f0             	movsbl %al,%esi
    9338:	48 8b 3d a9 fa 00 00 	mov    0xfaa9(%rip),%rdi        # 18de8 <_ZSt4cout@GLIBCXX_3.4>
    933f:	e8 dc e3 00 00       	callq  17720 <_ZNSo3putEc@plt>
    { return __os.flush(); }
    9344:	48 89 c7             	mov    %rax,%rdi
    9347:	e8 f4 e3 00 00       	callq  17740 <_ZNSo5flushEv@plt>
	__ostream_insert(__out, __s,
    934c:	48 8b 3d 95 fa 00 00 	mov    0xfa95(%rip),%rdi        # 18de8 <_ZSt4cout@GLIBCXX_3.4>
    9353:	48 8d 35 b6 97 ff ff 	lea    -0x684a(%rip),%rsi        # 2b10 <_IO_stdin_used+0x420>
    935a:	ba 0a 00 00 00       	mov    $0xa,%edx
    935f:	e8 9c e3 00 00       	callq  17700 <_ZSt16__ostream_insertIcSt11char_traitsIcEERSt13basic_ostreamIT_T0_ES6_PKS3_l@plt>
        std::cout << "Best program 1 details:" << std::endl;
        std::cout << "- Length: " << best_program1->len << " nodes" << std::endl;
    9364:	41 8b 77 08          	mov    0x8(%r15),%esi
    9368:	48 8b 3d 79 fa 00 00 	mov    0xfa79(%rip),%rdi        # 18de8 <_ZSt4cout@GLIBCXX_3.4>
    936f:	e8 3c e2 00 00       	callq  175b0 <_ZNSolsEi@plt>
    9374:	49 89 c4             	mov    %rax,%r12
    9377:	48 8d 35 df 98 ff ff 	lea    -0x6721(%rip),%rsi        # 2c5d <_IO_stdin_used+0x56d>
    937e:	ba 06 00 00 00       	mov    $0x6,%edx
    9383:	48 89 c7             	mov    %rax,%rdi
    9386:	e8 75 e3 00 00       	callq  17700 <_ZSt16__ostream_insertIcSt11char_traitsIcEERSt13basic_ostreamIT_T0_ES6_PKS3_l@plt>
    { return flush(__os.put(__os.widen('\n'))); }
    938b:	49 8b 04 24          	mov    (%r12),%rax
    938f:	48 8b 40 e8          	mov    -0x18(%rax),%rax
      { return __check_facet(_M_ctype).widen(__c); }
    9393:	4d 8b b4 04 f0 00 00 	mov    0xf0(%r12,%rax,1),%r14
    939a:	00 
      if (!__f)
    939b:	4d 85 f6             	test   %r14,%r14
    939e:	0f 84 6c 0a 00 00    	je     9e10 <_Z23run_symbolic_regressionRKNSt7__cxx1112basic_stringIcSt11char_traitsIcESaIcEEE+0x1fa0>
	if (_M_widen_ok)
    93a4:	41 80 7e 38 00       	cmpb   $0x0,0x38(%r14)
    93a9:	74 07                	je     93b2 <_Z23run_symbolic_regressionRKNSt7__cxx1112basic_stringIcSt11char_traitsIcESaIcEEE+0x1542>
	  return _M_widen[static_cast<unsigned char>(__c)];
    93ab:	41 0f b6 46 43       	movzbl 0x43(%r14),%eax
    93b0:	eb 16                	jmp    93c8 <_Z23run_symbolic_regressionRKNSt7__cxx1112basic_stringIcSt11char_traitsIcESaIcEEE+0x1558>
	this->_M_widen_init();
    93b2:	4c 89 f7             	mov    %r14,%rdi
    93b5:	e8 76 e3 00 00       	callq  17730 <_ZNKSt5ctypeIcE13_M_widen_initEv@plt>
	return this->do_widen(__c);
    93ba:	49 8b 06             	mov    (%r14),%rax
    93bd:	4c 89 f7             	mov    %r14,%rdi
    93c0:	be 0a 00 00 00       	mov    $0xa,%esi
    93c5:	ff 50 30             	callq  *0x30(%rax)
    93c8:	0f be f0             	movsbl %al,%esi
    93cb:	4c 89 e7             	mov    %r12,%rdi
    93ce:	e8 4d e3 00 00       	callq  17720 <_ZNSo3putEc@plt>
    { return __os.flush(); }
    93d3:	48 89 c7             	mov    %rax,%rdi
    93d6:	e8 65 e3 00 00       	callq  17740 <_ZNSo5flushEv@plt>
	__ostream_insert(__out, __s,
    93db:	48 8b 3d 06 fa 00 00 	mov    0xfa06(%rip),%rdi        # 18de8 <_ZSt4cout@GLIBCXX_3.4>
    93e2:	48 8d 35 1c 98 ff ff 	lea    -0x67e4(%rip),%rsi        # 2c05 <_IO_stdin_used+0x515>
    93e9:	ba 09 00 00 00       	mov    $0x9,%edx
    93ee:	e8 0d e3 00 00       	callq  17700 <_ZSt16__ostream_insertIcSt11char_traitsIcEERSt13basic_ostreamIT_T0_ES6_PKS3_l@plt>
        std::cout << "- Depth: " << best_program1->depth << std::endl;
    93f3:	41 8b 77 0c          	mov    0xc(%r15),%esi
    93f7:	48 8b 3d ea f9 00 00 	mov    0xf9ea(%rip),%rdi        # 18de8 <_ZSt4cout@GLIBCXX_3.4>
    93fe:	e8 ad e1 00 00       	callq  175b0 <_ZNSolsEi@plt>
    9403:	49 89 c4             	mov    %rax,%r12
    { return flush(__os.put(__os.widen('\n'))); }
    9406:	48 8b 00             	mov    (%rax),%rax
    9409:	48 8b 40 e8          	mov    -0x18(%rax),%rax
      { return __check_facet(_M_ctype).widen(__c); }
    940d:	4d 8b b4 04 f0 00 00 	mov    0xf0(%r12,%rax,1),%r14
    9414:	00 
      if (!__f)
    9415:	4d 85 f6             	test   %r14,%r14
    9418:	0f 84 f2 09 00 00    	je     9e10 <_Z23run_symbolic_regressionRKNSt7__cxx1112basic_stringIcSt11char_traitsIcESaIcEEE+0x1fa0>
	if (_M_widen_ok)
    941e:	41 80 7e 38 00       	cmpb   $0x0,0x38(%r14)
    9423:	74 07                	je     942c <_Z23run_symbolic_regressionRKNSt7__cxx1112basic_stringIcSt11char_traitsIcESaIcEEE+0x15bc>
	  return _M_widen[static_cast<unsigned char>(__c)];
    9425:	41 0f b6 46 43       	movzbl 0x43(%r14),%eax
    942a:	eb 16                	jmp    9442 <_Z23run_symbolic_regressionRKNSt7__cxx1112basic_stringIcSt11char_traitsIcESaIcEEE+0x15d2>
	this->_M_widen_init();
    942c:	4c 89 f7             	mov    %r14,%rdi
    942f:	e8 fc e2 00 00       	callq  17730 <_ZNKSt5ctypeIcE13_M_widen_initEv@plt>
	return this->do_widen(__c);
    9434:	49 8b 06             	mov    (%r14),%rax
    9437:	4c 89 f7             	mov    %r14,%rdi
    943a:	be 0a 00 00 00       	mov    $0xa,%esi
    943f:	ff 50 30             	callq  *0x30(%rax)
    9442:	0f be f0             	movsbl %al,%esi
    9445:	4c 89 e7             	mov    %r12,%rdi
    9448:	e8 d3 e2 00 00       	callq  17720 <_ZNSo3putEc@plt>
    { return __os.flush(); }
    944d:	48 89 c7             	mov    %rax,%rdi
    9450:	e8 eb e2 00 00       	callq  17740 <_ZNSo5flushEv@plt>
	__ostream_insert(__out, __s,
    9455:	48 8b 3d 8c f9 00 00 	mov    0xf98c(%rip),%rdi        # 18de8 <_ZSt4cout@GLIBCXX_3.4>
    945c:	48 8d 35 fa 98 ff ff 	lea    -0x6706(%rip),%rsi        # 2d5d <_IO_stdin_used+0x66d>
    9463:	ba 0f 00 00 00       	mov    $0xf,%edx
    9468:	e8 93 e2 00 00       	callq  17700 <_ZSt16__ostream_insertIcSt11char_traitsIcEERSt13basic_ostreamIT_T0_ES6_PKS3_l@plt>
        std::cout << "- Raw fitness: " << best_program1->raw_fitness_ << std::endl;
    946d:	f3 41 0f 10 47 10    	movss  0x10(%r15),%xmm0
	return _M_insert(static_cast<double>(__f));
    9473:	f3 0f 5a c0          	cvtss2sd %xmm0,%xmm0
    9477:	48 8b 3d 6a f9 00 00 	mov    0xf96a(%rip),%rdi        # 18de8 <_ZSt4cout@GLIBCXX_3.4>
    947e:	e8 8d e1 00 00       	callq  17610 <_ZNSo9_M_insertIdEERSoT_@plt>
    9483:	49 89 c4             	mov    %rax,%r12
    { return flush(__os.put(__os.widen('\n'))); }
    9486:	48 8b 00             	mov    (%rax),%rax
    9489:	48 8b 40 e8          	mov    -0x18(%rax),%rax
      { return __check_facet(_M_ctype).widen(__c); }
    948d:	4d 8b b4 04 f0 00 00 	mov    0xf0(%r12,%rax,1),%r14
    9494:	00 
      if (!__f)
    9495:	4d 85 f6             	test   %r14,%r14
    9498:	0f 84 72 09 00 00    	je     9e10 <_Z23run_symbolic_regressionRKNSt7__cxx1112basic_stringIcSt11char_traitsIcESaIcEEE+0x1fa0>
	if (_M_widen_ok)
    949e:	41 80 7e 38 00       	cmpb   $0x0,0x38(%r14)
    94a3:	74 07                	je     94ac <_Z23run_symbolic_regressionRKNSt7__cxx1112basic_stringIcSt11char_traitsIcESaIcEEE+0x163c>
	  return _M_widen[static_cast<unsigned char>(__c)];
    94a5:	41 0f b6 46 43       	movzbl 0x43(%r14),%eax
    94aa:	eb 16                	jmp    94c2 <_Z23run_symbolic_regressionRKNSt7__cxx1112basic_stringIcSt11char_traitsIcESaIcEEE+0x1652>
	this->_M_widen_init();
    94ac:	4c 89 f7             	mov    %r14,%rdi
    94af:	e8 7c e2 00 00       	callq  17730 <_ZNKSt5ctypeIcE13_M_widen_initEv@plt>
	return this->do_widen(__c);
    94b4:	49 8b 06             	mov    (%r14),%rax
    94b7:	4c 89 f7             	mov    %r14,%rdi
    94ba:	be 0a 00 00 00       	mov    $0xa,%esi
    94bf:	ff 50 30             	callq  *0x30(%rax)
    94c2:	0f be f0             	movsbl %al,%esi
    94c5:	4c 89 e7             	mov    %r12,%rdi
    94c8:	e8 53 e2 00 00       	callq  17720 <_ZNSo3putEc@plt>
    { return __os.flush(); }
    94cd:	48 89 c7             	mov    %rax,%rdi
    94d0:	e8 6b e2 00 00       	callq  17740 <_ZNSo5flushEv@plt>
	__ostream_insert(__out, __s,
    94d5:	48 8b 3d 0c f9 00 00 	mov    0xf90c(%rip),%rdi        # 18de8 <_ZSt4cout@GLIBCXX_3.4>
    94dc:	48 8d 35 f8 95 ff ff 	lea    -0x6a08(%rip),%rsi        # 2adb <_IO_stdin_used+0x3eb>
    94e3:	ba 0c 00 00 00       	mov    $0xc,%edx
    94e8:	e8 13 e2 00 00       	callq  17700 <_ZSt16__ostream_insertIcSt11char_traitsIcEERSt13basic_ostreamIT_T0_ES6_PKS3_l@plt>
    94ed:	f3 0f 10 44 24 28    	movss  0x28(%rsp),%xmm0
	return _M_insert(static_cast<double>(__f));
    94f3:	f3 0f 5a c0          	cvtss2sd %xmm0,%xmm0
    94f7:	48 8b 3d ea f8 00 00 	mov    0xf8ea(%rip),%rdi        # 18de8 <_ZSt4cout@GLIBCXX_3.4>
    94fe:	e8 0d e1 00 00       	callq  17610 <_ZNSo9_M_insertIdEERSoT_@plt>
        std::cout << "- Test MSE: " << mse << std::endl;
    9503:	49 89 c4             	mov    %rax,%r12
    { return flush(__os.put(__os.widen('\n'))); }
    9506:	48 8b 00             	mov    (%rax),%rax
    9509:	48 8b 40 e8          	mov    -0x18(%rax),%rax
      { return __check_facet(_M_ctype).widen(__c); }
    950d:	4d 8b b4 04 f0 00 00 	mov    0xf0(%r12,%rax,1),%r14
    9514:	00 
      if (!__f)
    9515:	4d 85 f6             	test   %r14,%r14
    9518:	0f 84 f2 08 00 00    	je     9e10 <_Z23run_symbolic_regressionRKNSt7__cxx1112basic_stringIcSt11char_traitsIcESaIcEEE+0x1fa0>
	if (_M_widen_ok)
    951e:	41 80 7e 38 00       	cmpb   $0x0,0x38(%r14)
    9523:	74 07                	je     952c <_Z23run_symbolic_regressionRKNSt7__cxx1112basic_stringIcSt11char_traitsIcESaIcEEE+0x16bc>
	  return _M_widen[static_cast<unsigned char>(__c)];
    9525:	41 0f b6 46 43       	movzbl 0x43(%r14),%eax
    952a:	eb 16                	jmp    9542 <_Z23run_symbolic_regressionRKNSt7__cxx1112basic_stringIcSt11char_traitsIcESaIcEEE+0x16d2>
	this->_M_widen_init();
    952c:	4c 89 f7             	mov    %r14,%rdi
    952f:	e8 fc e1 00 00       	callq  17730 <_ZNKSt5ctypeIcE13_M_widen_initEv@plt>
	return this->do_widen(__c);
    9534:	49 8b 06             	mov    (%r14),%rax
    9537:	4c 89 f7             	mov    %r14,%rdi
    953a:	be 0a 00 00 00       	mov    $0xa,%esi
    953f:	ff 50 30             	callq  *0x30(%rax)
    9542:	0f be f0             	movsbl %al,%esi
    9545:	4c 89 e7             	mov    %r12,%rdi
    9548:	e8 d3 e1 00 00       	callq  17720 <_ZNSo3putEc@plt>
    { return __os.flush(); }
    954d:	48 89 c7             	mov    %rax,%rdi
    9550:	e8 eb e1 00 00       	callq  17740 <_ZNSo5flushEv@plt>
    9555:	48 8d 7c 24 30       	lea    0x30(%rsp),%rdi

        // Convert to string representation
        std::string program_str = genetic::stringify(*best_program1);
    955a:	4c 89 fe             	mov    %r15,%rsi
    955d:	e8 7e b3 00 00       	callq  148e0 <_ZN7genetic9stringifyB5cxx11ERKNS_7programE>
	__ostream_insert(__out, __s,
    9562:	48 8b 3d 7f f8 00 00 	mov    0xf87f(%rip),%rdi        # 18de8 <_ZSt4cout@GLIBCXX_3.4>
    9569:	48 8d 35 d1 97 ff ff 	lea    -0x682f(%rip),%rsi        # 2d41 <_IO_stdin_used+0x651>
    9570:	ba 0b 00 00 00       	mov    $0xb,%edx
    9575:	e8 86 e1 00 00       	callq  17700 <_ZSt16__ostream_insertIcSt11char_traitsIcEERSt13basic_ostreamIT_T0_ES6_PKS3_l@plt>
      { return _M_dataplus._M_p; }
    957a:	48 8b 74 24 30       	mov    0x30(%rsp),%rsi
      { return _M_string_length; }
    957f:	48 8b 54 24 38       	mov    0x38(%rsp),%rdx
      return __ostream_insert(__os, __str.data(), __str.size());
    9584:	48 8b 3d 5d f8 00 00 	mov    0xf85d(%rip),%rdi        # 18de8 <_ZSt4cout@GLIBCXX_3.4>
    958b:	e8 70 e1 00 00       	callq  17700 <_ZSt16__ostream_insertIcSt11char_traitsIcEERSt13basic_ostreamIT_T0_ES6_PKS3_l@plt>
        std::cout << "- Program: " << program_str << std::endl;
    9590:	49 89 c7             	mov    %rax,%r15
    { return flush(__os.put(__os.widen('\n'))); }
    9593:	48 8b 00             	mov    (%rax),%rax
    9596:	48 8b 40 e8          	mov    -0x18(%rax),%rax
      { return __check_facet(_M_ctype).widen(__c); }
    959a:	4d 8b b4 07 f0 00 00 	mov    0xf0(%r15,%rax,1),%r14
    95a1:	00 
      if (!__f)
    95a2:	4d 85 f6             	test   %r14,%r14
    95a5:	0f 84 3c 09 00 00    	je     9ee7 <_Z23run_symbolic_regressionRKNSt7__cxx1112basic_stringIcSt11char_traitsIcESaIcEEE+0x2077>
	if (_M_widen_ok)
    95ab:	41 80 7e 38 00       	cmpb   $0x0,0x38(%r14)
    95b0:	74 07                	je     95b9 <_Z23run_symbolic_regressionRKNSt7__cxx1112basic_stringIcSt11char_traitsIcESaIcEEE+0x1749>
	  return _M_widen[static_cast<unsigned char>(__c)];
    95b2:	41 0f b6 46 43       	movzbl 0x43(%r14),%eax
    95b7:	eb 16                	jmp    95cf <_Z23run_symbolic_regressionRKNSt7__cxx1112basic_stringIcSt11char_traitsIcESaIcEEE+0x175f>
	this->_M_widen_init();
    95b9:	4c 89 f7             	mov    %r14,%rdi
    95bc:	e8 6f e1 00 00       	callq  17730 <_ZNKSt5ctypeIcE13_M_widen_initEv@plt>
	return this->do_widen(__c);
    95c1:	49 8b 06             	mov    (%r14),%rax
    95c4:	4c 89 f7             	mov    %r14,%rdi
    95c7:	be 0a 00 00 00       	mov    $0xa,%esi
    95cc:	ff 50 30             	callq  *0x30(%rax)
    95cf:	0f be f0             	movsbl %al,%esi
    95d2:	4c 89 ff             	mov    %r15,%rdi
    95d5:	e8 46 e1 00 00       	callq  17720 <_ZNSo3putEc@plt>
    { return __os.flush(); }
    95da:	48 89 c7             	mov    %rax,%rdi
    95dd:	e8 5e e1 00 00       	callq  17740 <_ZNSo5flushEv@plt>

        genetic::program_t best_program2 = &final_programs[1];
    95e2:	4c 8b 7c 24 50       	mov    0x50(%rsp),%r15
	__ostream_insert(__out, __s,
    95e7:	4c 8b 35 fa f7 00 00 	mov    0xf7fa(%rip),%r14        # 18de8 <_ZSt4cout@GLIBCXX_3.4>
    95ee:	48 8d 35 09 94 ff ff 	lea    -0x6bf7(%rip),%rsi        # 29fe <_IO_stdin_used+0x30e>
    95f5:	ba 17 00 00 00       	mov    $0x17,%edx
    95fa:	4c 89 f7             	mov    %r14,%rdi
    95fd:	e8 fe e0 00 00       	callq  17700 <_ZSt16__ostream_insertIcSt11char_traitsIcEERSt13basic_ostreamIT_T0_ES6_PKS3_l@plt>
    { return flush(__os.put(__os.widen('\n'))); }
    9602:	49 8b 06             	mov    (%r14),%rax
    9605:	48 8b 40 e8          	mov    -0x18(%rax),%rax
      { return __check_facet(_M_ctype).widen(__c); }
    9609:	4d 8b b4 06 f0 00 00 	mov    0xf0(%r14,%rax,1),%r14
    9610:	00 
      if (!__f)
    9611:	4d 85 f6             	test   %r14,%r14
    9614:	0f 84 fb 07 00 00    	je     9e15 <_Z23run_symbolic_regressionRKNSt7__cxx1112basic_stringIcSt11char_traitsIcESaIcEEE+0x1fa5>
	if (_M_widen_ok)
    961a:	41 80 7e 38 00       	cmpb   $0x0,0x38(%r14)
    961f:	74 07                	je     9628 <_Z23run_symbolic_regressionRKNSt7__cxx1112basic_stringIcSt11char_traitsIcESaIcEEE+0x17b8>
	  return _M_widen[static_cast<unsigned char>(__c)];
    9621:	41 0f b6 46 43       	movzbl 0x43(%r14),%eax
    9626:	eb 16                	jmp    963e <_Z23run_symbolic_regressionRKNSt7__cxx1112basic_stringIcSt11char_traitsIcESaIcEEE+0x17ce>
	this->_M_widen_init();
    9628:	4c 89 f7             	mov    %r14,%rdi
    962b:	e8 00 e1 00 00       	callq  17730 <_ZNKSt5ctypeIcE13_M_widen_initEv@plt>
	return this->do_widen(__c);
    9630:	49 8b 06             	mov    (%r14),%rax
    9633:	4c 89 f7             	mov    %r14,%rdi
    9636:	be 0a 00 00 00       	mov    $0xa,%esi
    963b:	ff 50 30             	callq  *0x30(%rax)
    963e:	0f be f0             	movsbl %al,%esi
    9641:	48 8b 3d a0 f7 00 00 	mov    0xf7a0(%rip),%rdi        # 18de8 <_ZSt4cout@GLIBCXX_3.4>
    9648:	e8 d3 e0 00 00       	callq  17720 <_ZNSo3putEc@plt>
    { return __os.flush(); }
    964d:	48 89 c7             	mov    %rax,%rdi
    9650:	e8 eb e0 00 00       	callq  17740 <_ZNSo5flushEv@plt>
	__ostream_insert(__out, __s,
    9655:	48 8b 3d 8c f7 00 00 	mov    0xf78c(%rip),%rdi        # 18de8 <_ZSt4cout@GLIBCXX_3.4>
    965c:	48 8d 35 ad 94 ff ff 	lea    -0x6b53(%rip),%rsi        # 2b10 <_IO_stdin_used+0x420>
    9663:	ba 0a 00 00 00       	mov    $0xa,%edx
    9668:	e8 93 e0 00 00       	callq  17700 <_ZSt16__ostream_insertIcSt11char_traitsIcEERSt13basic_ostreamIT_T0_ES6_PKS3_l@plt>
        std::cout << "Best program 2 details:" << std::endl;
        std::cout << "- Length: " << best_program2->len << " nodes" << std::endl;
    966d:	41 8b 77 28          	mov    0x28(%r15),%esi
    9671:	48 8b 3d 70 f7 00 00 	mov    0xf770(%rip),%rdi        # 18de8 <_ZSt4cout@GLIBCXX_3.4>
    9678:	e8 33 df 00 00       	callq  175b0 <_ZNSolsEi@plt>
    967d:	49 89 c4             	mov    %rax,%r12
    9680:	48 8d 35 d6 95 ff ff 	lea    -0x6a2a(%rip),%rsi        # 2c5d <_IO_stdin_used+0x56d>
    9687:	ba 06 00 00 00       	mov    $0x6,%edx
    968c:	48 89 c7             	mov    %rax,%rdi
    968f:	e8 6c e0 00 00       	callq  17700 <_ZSt16__ostream_insertIcSt11char_traitsIcEERSt13basic_ostreamIT_T0_ES6_PKS3_l@plt>
    { return flush(__os.put(__os.widen('\n'))); }
    9694:	49 8b 04 24          	mov    (%r12),%rax
    9698:	48 8b 40 e8          	mov    -0x18(%rax),%rax
      { return __check_facet(_M_ctype).widen(__c); }
    969c:	4d 8b b4 04 f0 00 00 	mov    0xf0(%r12,%rax,1),%r14
    96a3:	00 
      if (!__f)
    96a4:	4d 85 f6             	test   %r14,%r14
    96a7:	0f 84 68 07 00 00    	je     9e15 <_Z23run_symbolic_regressionRKNSt7__cxx1112basic_stringIcSt11char_traitsIcESaIcEEE+0x1fa5>
	if (_M_widen_ok)
    96ad:	41 80 7e 38 00       	cmpb   $0x0,0x38(%r14)
    96b2:	74 07                	je     96bb <_Z23run_symbolic_regressionRKNSt7__cxx1112basic_stringIcSt11char_traitsIcESaIcEEE+0x184b>
	  return _M_widen[static_cast<unsigned char>(__c)];
    96b4:	41 0f b6 46 43       	movzbl 0x43(%r14),%eax
    96b9:	eb 16                	jmp    96d1 <_Z23run_symbolic_regressionRKNSt7__cxx1112basic_stringIcSt11char_traitsIcESaIcEEE+0x1861>
	this->_M_widen_init();
    96bb:	4c 89 f7             	mov    %r14,%rdi
    96be:	e8 6d e0 00 00       	callq  17730 <_ZNKSt5ctypeIcE13_M_widen_initEv@plt>
	return this->do_widen(__c);
    96c3:	49 8b 06             	mov    (%r14),%rax
    96c6:	4c 89 f7             	mov    %r14,%rdi
    96c9:	be 0a 00 00 00       	mov    $0xa,%esi
    96ce:	ff 50 30             	callq  *0x30(%rax)
    96d1:	0f be f0             	movsbl %al,%esi
    96d4:	4c 89 e7             	mov    %r12,%rdi
    96d7:	e8 44 e0 00 00       	callq  17720 <_ZNSo3putEc@plt>
    { return __os.flush(); }
    96dc:	48 89 c7             	mov    %rax,%rdi
    96df:	e8 5c e0 00 00       	callq  17740 <_ZNSo5flushEv@plt>
	__ostream_insert(__out, __s,
    96e4:	48 8b 3d fd f6 00 00 	mov    0xf6fd(%rip),%rdi        # 18de8 <_ZSt4cout@GLIBCXX_3.4>
    96eb:	48 8d 35 13 95 ff ff 	lea    -0x6aed(%rip),%rsi        # 2c05 <_IO_stdin_used+0x515>
    96f2:	ba 09 00 00 00       	mov    $0x9,%edx
    96f7:	e8 04 e0 00 00       	callq  17700 <_ZSt16__ostream_insertIcSt11char_traitsIcEERSt13basic_ostreamIT_T0_ES6_PKS3_l@plt>
        std::cout << "- Depth: " << best_program2->depth << std::endl;
    96fc:	41 8b 77 2c          	mov    0x2c(%r15),%esi
    9700:	48 8b 3d e1 f6 00 00 	mov    0xf6e1(%rip),%rdi        # 18de8 <_ZSt4cout@GLIBCXX_3.4>
    9707:	e8 a4 de 00 00       	callq  175b0 <_ZNSolsEi@plt>
    970c:	49 89 c4             	mov    %rax,%r12
    { return flush(__os.put(__os.widen('\n'))); }
    970f:	48 8b 00             	mov    (%rax),%rax
    9712:	48 8b 40 e8          	mov    -0x18(%rax),%rax
      { return __check_facet(_M_ctype).widen(__c); }
    9716:	4d 8b b4 04 f0 00 00 	mov    0xf0(%r12,%rax,1),%r14
    971d:	00 
      if (!__f)
    971e:	4d 85 f6             	test   %r14,%r14
    9721:	0f 84 ee 06 00 00    	je     9e15 <_Z23run_symbolic_regressionRKNSt7__cxx1112basic_stringIcSt11char_traitsIcESaIcEEE+0x1fa5>
	if (_M_widen_ok)
    9727:	41 80 7e 38 00       	cmpb   $0x0,0x38(%r14)
    972c:	74 07                	je     9735 <_Z23run_symbolic_regressionRKNSt7__cxx1112basic_stringIcSt11char_traitsIcESaIcEEE+0x18c5>
	  return _M_widen[static_cast<unsigned char>(__c)];
    972e:	41 0f b6 46 43       	movzbl 0x43(%r14),%eax
    9733:	eb 16                	jmp    974b <_Z23run_symbolic_regressionRKNSt7__cxx1112basic_stringIcSt11char_traitsIcESaIcEEE+0x18db>
	this->_M_widen_init();
    9735:	4c 89 f7             	mov    %r14,%rdi
    9738:	e8 f3 df 00 00       	callq  17730 <_ZNKSt5ctypeIcE13_M_widen_initEv@plt>
	return this->do_widen(__c);
    973d:	49 8b 06             	mov    (%r14),%rax
    9740:	4c 89 f7             	mov    %r14,%rdi
    9743:	be 0a 00 00 00       	mov    $0xa,%esi
    9748:	ff 50 30             	callq  *0x30(%rax)
    974b:	0f be f0             	movsbl %al,%esi
    974e:	4c 89 e7             	mov    %r12,%rdi
    9751:	e8 ca df 00 00       	callq  17720 <_ZNSo3putEc@plt>
    { return __os.flush(); }
    9756:	48 89 c7             	mov    %rax,%rdi
    9759:	e8 e2 df 00 00       	callq  17740 <_ZNSo5flushEv@plt>
	__ostream_insert(__out, __s,
    975e:	48 8b 3d 83 f6 00 00 	mov    0xf683(%rip),%rdi        # 18de8 <_ZSt4cout@GLIBCXX_3.4>
    9765:	48 8d 35 f1 95 ff ff 	lea    -0x6a0f(%rip),%rsi        # 2d5d <_IO_stdin_used+0x66d>
    976c:	ba 0f 00 00 00       	mov    $0xf,%edx
    9771:	e8 8a df 00 00       	callq  17700 <_ZSt16__ostream_insertIcSt11char_traitsIcEERSt13basic_ostreamIT_T0_ES6_PKS3_l@plt>
        std::cout << "- Raw fitness: " << best_program2->raw_fitness_ << std::endl;
    9776:	f3 41 0f 10 47 30    	movss  0x30(%r15),%xmm0
	return _M_insert(static_cast<double>(__f));
    977c:	f3 0f 5a c0          	cvtss2sd %xmm0,%xmm0
    9780:	48 8b 3d 61 f6 00 00 	mov    0xf661(%rip),%rdi        # 18de8 <_ZSt4cout@GLIBCXX_3.4>
    9787:	e8 84 de 00 00       	callq  17610 <_ZNSo9_M_insertIdEERSoT_@plt>
    978c:	49 89 c4             	mov    %rax,%r12
    { return flush(__os.put(__os.widen('\n'))); }
    978f:	48 8b 00             	mov    (%rax),%rax
    9792:	48 8b 40 e8          	mov    -0x18(%rax),%rax
      { return __check_facet(_M_ctype).widen(__c); }
    9796:	4d 8b b4 04 f0 00 00 	mov    0xf0(%r12,%rax,1),%r14
    979d:	00 
      if (!__f)
    979e:	4d 85 f6             	test   %r14,%r14
    97a1:	0f 84 6e 06 00 00    	je     9e15 <_Z23run_symbolic_regressionRKNSt7__cxx1112basic_stringIcSt11char_traitsIcESaIcEEE+0x1fa5>
	if (_M_widen_ok)
    97a7:	41 80 7e 38 00       	cmpb   $0x0,0x38(%r14)
    97ac:	74 07                	je     97b5 <_Z23run_symbolic_regressionRKNSt7__cxx1112basic_stringIcSt11char_traitsIcESaIcEEE+0x1945>
	  return _M_widen[static_cast<unsigned char>(__c)];
    97ae:	41 0f b6 46 43       	movzbl 0x43(%r14),%eax
    97b3:	eb 16                	jmp    97cb <_Z23run_symbolic_regressionRKNSt7__cxx1112basic_stringIcSt11char_traitsIcESaIcEEE+0x195b>
	this->_M_widen_init();
    97b5:	4c 89 f7             	mov    %r14,%rdi
    97b8:	e8 73 df 00 00       	callq  17730 <_ZNKSt5ctypeIcE13_M_widen_initEv@plt>
	return this->do_widen(__c);
    97bd:	49 8b 06             	mov    (%r14),%rax
    97c0:	4c 89 f7             	mov    %r14,%rdi
    97c3:	be 0a 00 00 00       	mov    $0xa,%esi
    97c8:	ff 50 30             	callq  *0x30(%rax)
    97cb:	0f be f0             	movsbl %al,%esi
    97ce:	4c 89 e7             	mov    %r12,%rdi
    97d1:	e8 4a df 00 00       	callq  17720 <_ZNSo3putEc@plt>
    { return __os.flush(); }
    97d6:	48 89 c7             	mov    %rax,%rdi
    97d9:	e8 62 df 00 00       	callq  17740 <_ZNSo5flushEv@plt>
	__ostream_insert(__out, __s,
    97de:	48 8b 3d 03 f6 00 00 	mov    0xf603(%rip),%rdi        # 18de8 <_ZSt4cout@GLIBCXX_3.4>
    97e5:	48 8d 35 ef 92 ff ff 	lea    -0x6d11(%rip),%rsi        # 2adb <_IO_stdin_used+0x3eb>
    97ec:	ba 0c 00 00 00       	mov    $0xc,%edx
    97f1:	e8 0a df 00 00       	callq  17700 <_ZSt16__ostream_insertIcSt11char_traitsIcEERSt13basic_ostreamIT_T0_ES6_PKS3_l@plt>
    97f6:	f3 0f 10 44 24 58    	movss  0x58(%rsp),%xmm0
    97fc:	f3 0f 5e 44 24 14    	divss  0x14(%rsp),%xmm0
	return _M_insert(static_cast<double>(__f));
    9802:	f3 0f 5a c0          	cvtss2sd %xmm0,%xmm0
    9806:	48 8b 3d db f5 00 00 	mov    0xf5db(%rip),%rdi        # 18de8 <_ZSt4cout@GLIBCXX_3.4>
    980d:	e8 fe dd 00 00       	callq  17610 <_ZNSo9_M_insertIdEERSoT_@plt>
        std::cout << "- Test MSE: " << mse2 << std::endl;
    9812:	49 89 c4             	mov    %rax,%r12
    { return flush(__os.put(__os.widen('\n'))); }
    9815:	48 8b 00             	mov    (%rax),%rax
    9818:	48 8b 40 e8          	mov    -0x18(%rax),%rax
      { return __check_facet(_M_ctype).widen(__c); }
    981c:	4d 8b b4 04 f0 00 00 	mov    0xf0(%r12,%rax,1),%r14
    9823:	00 
      if (!__f)
    9824:	4d 85 f6             	test   %r14,%r14
    9827:	0f 84 e8 05 00 00    	je     9e15 <_Z23run_symbolic_regressionRKNSt7__cxx1112basic_stringIcSt11char_traitsIcESaIcEEE+0x1fa5>
	if (_M_widen_ok)
    982d:	41 80 7e 38 00       	cmpb   $0x0,0x38(%r14)
    9832:	74 07                	je     983b <_Z23run_symbolic_regressionRKNSt7__cxx1112basic_stringIcSt11char_traitsIcESaIcEEE+0x19cb>
	  return _M_widen[static_cast<unsigned char>(__c)];
    9834:	41 0f b6 46 43       	movzbl 0x43(%r14),%eax
    9839:	eb 16                	jmp    9851 <_Z23run_symbolic_regressionRKNSt7__cxx1112basic_stringIcSt11char_traitsIcESaIcEEE+0x19e1>
	this->_M_widen_init();
    983b:	4c 89 f7             	mov    %r14,%rdi
    983e:	e8 ed de 00 00       	callq  17730 <_ZNKSt5ctypeIcE13_M_widen_initEv@plt>
	return this->do_widen(__c);
    9843:	49 8b 06             	mov    (%r14),%rax
    9846:	4c 89 f7             	mov    %r14,%rdi
    9849:	be 0a 00 00 00       	mov    $0xa,%esi
    984e:	ff 50 30             	callq  *0x30(%rax)
    9851:	0f be f0             	movsbl %al,%esi
    9854:	4c 89 e7             	mov    %r12,%rdi
    9857:	e8 c4 de 00 00       	callq  17720 <_ZNSo3putEc@plt>
    { return __os.flush(); }
    985c:	48 89 c7             	mov    %rax,%rdi
    985f:	e8 dc de 00 00       	callq  17740 <_ZNSo5flushEv@plt>
    9864:	49 83 c7 20          	add    $0x20,%r15
    9868:	48 8d bc 24 88 02 00 	lea    0x288(%rsp),%rdi
    986f:	00 

        // Convert to string representation
        std::string program_str2 = genetic::stringify(*best_program2);
    9870:	4c 89 fe             	mov    %r15,%rsi
    9873:	e8 68 b0 00 00       	callq  148e0 <_ZN7genetic9stringifyB5cxx11ERKNS_7programE>
	__ostream_insert(__out, __s,
    9878:	48 8b 3d 69 f5 00 00 	mov    0xf569(%rip),%rdi        # 18de8 <_ZSt4cout@GLIBCXX_3.4>
    987f:	48 8d 35 bb 94 ff ff 	lea    -0x6b45(%rip),%rsi        # 2d41 <_IO_stdin_used+0x651>
    9886:	ba 0b 00 00 00       	mov    $0xb,%edx
    988b:	e8 70 de 00 00       	callq  17700 <_ZSt16__ostream_insertIcSt11char_traitsIcEERSt13basic_ostreamIT_T0_ES6_PKS3_l@plt>
      { return _M_dataplus._M_p; }
    9890:	48 8b b4 24 88 02 00 	mov    0x288(%rsp),%rsi
    9897:	00 
      { return _M_string_length; }
    9898:	48 8b 94 24 90 02 00 	mov    0x290(%rsp),%rdx
    989f:	00 
      return __ostream_insert(__os, __str.data(), __str.size());
    98a0:	48 8b 3d 41 f5 00 00 	mov    0xf541(%rip),%rdi        # 18de8 <_ZSt4cout@GLIBCXX_3.4>
    98a7:	e8 54 de 00 00       	callq  17700 <_ZSt16__ostream_insertIcSt11char_traitsIcEERSt13basic_ostreamIT_T0_ES6_PKS3_l@plt>
        std::cout << "- Program: " << program_str2 << std::endl;
    98ac:	49 89 c7             	mov    %rax,%r15
    { return flush(__os.put(__os.widen('\n'))); }
    98af:	48 8b 00             	mov    (%rax),%rax
    98b2:	48 8b 40 e8          	mov    -0x18(%rax),%rax
      { return __check_facet(_M_ctype).widen(__c); }
    98b6:	4d 8b b4 07 f0 00 00 	mov    0xf0(%r15,%rax,1),%r14
    98bd:	00 
      if (!__f)
    98be:	4d 85 f6             	test   %r14,%r14
    98c1:	0f 84 25 06 00 00    	je     9eec <_Z23run_symbolic_regressionRKNSt7__cxx1112basic_stringIcSt11char_traitsIcESaIcEEE+0x207c>
	if (_M_widen_ok)
    98c7:	41 80 7e 38 00       	cmpb   $0x0,0x38(%r14)
    98cc:	74 07                	je     98d5 <_Z23run_symbolic_regressionRKNSt7__cxx1112basic_stringIcSt11char_traitsIcESaIcEEE+0x1a65>
	  return _M_widen[static_cast<unsigned char>(__c)];
    98ce:	41 0f b6 46 43       	movzbl 0x43(%r14),%eax
    98d3:	eb 16                	jmp    98eb <_Z23run_symbolic_regressionRKNSt7__cxx1112basic_stringIcSt11char_traitsIcESaIcEEE+0x1a7b>
	this->_M_widen_init();
    98d5:	4c 89 f7             	mov    %r14,%rdi
    98d8:	e8 53 de 00 00       	callq  17730 <_ZNKSt5ctypeIcE13_M_widen_initEv@plt>
	return this->do_widen(__c);
    98dd:	49 8b 06             	mov    (%r14),%rax
    98e0:	4c 89 f7             	mov    %r14,%rdi
    98e3:	be 0a 00 00 00       	mov    $0xa,%esi
    98e8:	ff 50 30             	callq  *0x30(%rax)
    98eb:	0f be f0             	movsbl %al,%esi
    98ee:	4c 89 ff             	mov    %r15,%rdi
    98f1:	e8 2a de 00 00       	callq  17720 <_ZNSo3putEc@plt>
    { return __os.flush(); }
    98f6:	48 89 c7             	mov    %rax,%rdi
    98f9:	e8 42 de 00 00       	callq  17740 <_ZNSo5flushEv@plt>
      { return _M_dataplus._M_p; }
    98fe:	48 8b bc 24 88 02 00 	mov    0x288(%rsp),%rdi
    9905:	00 
	return std::pointer_traits<const_pointer>::pointer_to(*_M_local_buf);
    9906:	48 8d 84 24 98 02 00 	lea    0x298(%rsp),%rax
    990d:	00 
      { return _M_data() == _M_local_data(); }
    990e:	48 39 c7             	cmp    %rax,%rdi
	if (!_M_is_local())
    9911:	74 05                	je     9918 <_Z23run_symbolic_regressionRKNSt7__cxx1112basic_stringIcSt11char_traitsIcESaIcEEE+0x1aa8>
	::operator delete(__p
    9913:	e8 a8 dd 00 00       	callq  176c0 <_ZdlPv@plt>
      { return _M_dataplus._M_p; }
    9918:	48 8b 7c 24 30       	mov    0x30(%rsp),%rdi
	return std::pointer_traits<const_pointer>::pointer_to(*_M_local_buf);
    991d:	48 8d 44 24 40       	lea    0x40(%rsp),%rax
      { return _M_data() == _M_local_data(); }
    9922:	48 39 c7             	cmp    %rax,%rdi
	if (!_M_is_local())
    9925:	74 05                	je     992c <_Z23run_symbolic_regressionRKNSt7__cxx1112basic_stringIcSt11char_traitsIcESaIcEEE+0x1abc>
    9927:	e8 94 dd 00 00       	callq  176c0 <_ZdlPv@plt>
 * @sa ctimer_measure
 * @sa ctimer_lap
 */
static inline void ctimer_stop(ctimer_t* t /**<[in,out] stopwatch pointer */
) {
    clock_gettime(CLOCK_MONOTONIC, &t->end);
    992c:	48 8d b4 24 b8 02 00 	lea    0x2b8(%rsp),%rsi
    9933:	00 
    9934:	bf 01 00 00 00       	mov    $0x1,%edi
    9939:	e8 62 e0 00 00       	callq  179a0 <clock_gettime@plt>
    timespec_sub(&t->elapsed, t->end, t->start);
    993e:	48 8b 84 24 a8 02 00 	mov    0x2a8(%rsp),%rax
    9945:	00 
    9946:	4c 8b bc 24 c0 02 00 	mov    0x2c0(%rsp),%r15
    994d:	00 
    t_diff->tv_nsec = t_end.tv_nsec - t_start.tv_nsec;
    994e:	4c 2b bc 24 b0 02 00 	sub    0x2b0(%rsp),%r15
    9955:	00 
    timespec_sub(&t->elapsed, t->end, t->start);
    9956:	4c 8b a4 24 b8 02 00 	mov    0x2b8(%rsp),%r12
    995d:	00 
    t_diff->tv_nsec = t_end.tv_nsec - t_start.tv_nsec;
    995e:	4c 89 bc 24 d0 02 00 	mov    %r15,0x2d0(%rsp)
    9965:	00 
    if ((t_diff->tv_sec > 0) && (t_diff->tv_nsec < 0)) {
    9966:	49 29 c4             	sub    %rax,%r12
    t_diff->tv_sec  = t_end.tv_sec - t_start.tv_sec;
    9969:	4c 89 a4 24 c8 02 00 	mov    %r12,0x2c8(%rsp)
    9970:	00 
    if ((t_diff->tv_sec > 0) && (t_diff->tv_nsec < 0)) {
    9971:	7e 13                	jle    9986 <_Z23run_symbolic_regressionRKNSt7__cxx1112basic_stringIcSt11char_traitsIcESaIcEEE+0x1b16>
    9973:	4d 85 ff             	test   %r15,%r15
    9976:	79 37                	jns    99af <_Z23run_symbolic_regressionRKNSt7__cxx1112basic_stringIcSt11char_traitsIcESaIcEEE+0x1b3f>
    9978:	48 c7 c0 ff ff ff ff 	mov    $0xffffffffffffffff,%rax
    997f:	b9 00 ca 9a 3b       	mov    $0x3b9aca00,%ecx
    9984:	eb 13                	jmp    9999 <_Z23run_symbolic_regressionRKNSt7__cxx1112basic_stringIcSt11char_traitsIcESaIcEEE+0x1b29>
    } else if ((t_diff->tv_sec < 0) && (t_diff->tv_nsec > 0)) {
    9986:	74 27                	je     99af <_Z23run_symbolic_regressionRKNSt7__cxx1112basic_stringIcSt11char_traitsIcESaIcEEE+0x1b3f>
    9988:	4d 85 ff             	test   %r15,%r15
    998b:	7e 22                	jle    99af <_Z23run_symbolic_regressionRKNSt7__cxx1112basic_stringIcSt11char_traitsIcESaIcEEE+0x1b3f>
    998d:	b8 01 00 00 00       	mov    $0x1,%eax
    9992:	48 c7 c1 00 36 65 c4 	mov    $0xffffffffc4653600,%rcx
    9999:	49 01 cf             	add    %rcx,%r15
    999c:	4c 89 bc 24 d0 02 00 	mov    %r15,0x2d0(%rsp)
    99a3:	00 
    99a4:	49 01 c4             	add    %rax,%r12
    99a7:	4c 89 a4 24 c8 02 00 	mov    %r12,0x2c8(%rsp)
    99ae:	00 
 */
static inline void ctimer_print(ctimer_t const t,    /**<[in] stopwatch pointer */
                                char const*    label /**<[in] label/description for printed time */
) {
    if ((label != NULL) && (label[0] != '\0'))
        printf("Time(%s) = ", label);
    99af:	48 8d 3d f4 91 ff ff 	lea    -0x6e0c(%rip),%rdi        # 2baa <_IO_stdin_used+0x4ba>
    99b6:	48 8d 35 e3 92 ff ff 	lea    -0x6d1d(%rip),%rsi        # 2ca0 <_IO_stdin_used+0x5b0>
    99bd:	31 c0                	xor    %eax,%eax
    99bf:	e8 ec df 00 00       	callq  179b0 <printf@plt>
    else
        printf("Time = ");

    printf("%ld.%09ld sec\n", (long)t.elapsed.tv_sec, t.elapsed.tv_nsec);
    99c4:	48 8d 3d 44 92 ff ff 	lea    -0x6dbc(%rip),%rdi        # 2c0f <_IO_stdin_used+0x51f>
    99cb:	4c 89 e6             	mov    %r12,%rsi
    99ce:	4c 89 fa             	mov    %r15,%rdx
    99d1:	31 c0                	xor    %eax,%eax
    99d3:	e8 d8 df 00 00       	callq  179b0 <printf@plt>
    // Stop end-to-end timer and print results
    ctimer_stop(&end_to_end_timer);
    ctimer_measure(&end_to_end_timer);
    ctimer_print(end_to_end_timer, "Symbolic Regression (End-to-End)");

    delete[] final_programs;
    99d8:	4c 8b 74 24 50       	mov    0x50(%rsp),%r14
    99dd:	4d 85 f6             	test   %r14,%r14
    99e0:	74 35                	je     9a17 <_Z23run_symbolic_regressionRKNSt7__cxx1112basic_stringIcSt11char_traitsIcESaIcEEE+0x1ba7>
    99e2:	4d 8d 7e f8          	lea    -0x8(%r14),%r15
    99e6:	4d 8b 66 f8          	mov    -0x8(%r14),%r12
    99ea:	4d 85 e4             	test   %r12,%r12
    99ed:	74 20                	je     9a0f <_Z23run_symbolic_regressionRKNSt7__cxx1112basic_stringIcSt11char_traitsIcESaIcEEE+0x1b9f>
    99ef:	49 c1 e4 05          	shl    $0x5,%r12
    99f3:	49 83 c6 e0          	add    $0xffffffffffffffe0,%r14
    99f7:	66 0f 1f 84 00 00 00 	nopw   0x0(%rax,%rax,1)
    99fe:	00 00 
    9a00:	4b 8d 3c 26          	lea    (%r14,%r12,1),%rdi
    9a04:	e8 17 43 00 00       	callq  dd20 <_ZN7genetic7programD1Ev>
    9a09:	49 83 c4 e0          	add    $0xffffffffffffffe0,%r12
    9a0d:	75 f1                	jne    9a00 <_Z23run_symbolic_regressionRKNSt7__cxx1112basic_stringIcSt11char_traitsIcESaIcEEE+0x1b90>
    9a0f:	4c 89 ff             	mov    %r15,%rdi
    9a12:	e8 f9 dc 00 00       	callq  17710 <_ZdaPv@plt>
	if (__p)
    9a17:	48 85 db             	test   %rbx,%rbx
    9a1a:	74 08                	je     9a24 <_Z23run_symbolic_regressionRKNSt7__cxx1112basic_stringIcSt11char_traitsIcESaIcEEE+0x1bb4>
    9a1c:	48 89 df             	mov    %rbx,%rdi
    9a1f:	e8 9c dc 00 00       	callq  176c0 <_ZdlPv@plt>
    9a24:	48 8b 7c 24 18       	mov    0x18(%rsp),%rdi
    9a29:	48 85 ff             	test   %rdi,%rdi
    9a2c:	74 05                	je     9a33 <_Z23run_symbolic_regressionRKNSt7__cxx1112basic_stringIcSt11char_traitsIcESaIcEEE+0x1bc3>
    9a2e:	e8 8d dc 00 00       	callq  176c0 <_ZdlPv@plt>
	std::_Destroy(this->_M_impl._M_start, this->_M_impl._M_finish,
    9a33:	48 8b 9c 24 c0 01 00 	mov    0x1c0(%rsp),%rbx
    9a3a:	00 
    9a3b:	4c 8b b4 24 c8 01 00 	mov    0x1c8(%rsp),%r14
    9a42:	00 
	  for (; __first != __last; ++__first)
    9a43:	4c 39 f3             	cmp    %r14,%rbx
    9a46:	0f 85 f1 00 00 00    	jne    9b3d <_Z23run_symbolic_regressionRKNSt7__cxx1112basic_stringIcSt11char_traitsIcESaIcEEE+0x1ccd>
	if (__p)
    9a4c:	48 85 db             	test   %rbx,%rbx
    9a4f:	74 08                	je     9a59 <_Z23run_symbolic_regressionRKNSt7__cxx1112basic_stringIcSt11char_traitsIcESaIcEEE+0x1be9>
    9a51:	48 89 df             	mov    %rbx,%rdi
    9a54:	e8 67 dc 00 00       	callq  176c0 <_ZdlPv@plt>
	std::_Destroy(this->_M_impl._M_start, this->_M_impl._M_finish,
    9a59:	48 8b 9c 24 98 01 00 	mov    0x198(%rsp),%rbx
    9a60:	00 
    9a61:	4c 8b b4 24 a0 01 00 	mov    0x1a0(%rsp),%r14
    9a68:	00 
    9a69:	4c 39 f3             	cmp    %r14,%rbx
    9a6c:	0f 85 1b 01 00 00    	jne    9b8d <_Z23run_symbolic_regressionRKNSt7__cxx1112basic_stringIcSt11char_traitsIcESaIcEEE+0x1d1d>
	if (__p)
    9a72:	48 85 db             	test   %rbx,%rbx
    9a75:	74 08                	je     9a7f <_Z23run_symbolic_regressionRKNSt7__cxx1112basic_stringIcSt11char_traitsIcESaIcEEE+0x1c0f>
    9a77:	48 89 df             	mov    %rbx,%rdi
    9a7a:	e8 41 dc 00 00       	callq  176c0 <_ZdlPv@plt>
	_M_deallocate(_M_impl._M_start,
    9a7f:	48 8b bc 24 58 01 00 	mov    0x158(%rsp),%rdi
    9a86:	00 
	if (__p)
    9a87:	48 85 ff             	test   %rdi,%rdi
    9a8a:	74 05                	je     9a91 <_Z23run_symbolic_regressionRKNSt7__cxx1112basic_stringIcSt11char_traitsIcESaIcEEE+0x1c21>
    9a8c:	e8 2f dc 00 00       	callq  176c0 <_ZdlPv@plt>
	_M_deallocate(_M_impl._M_start,
    9a91:	48 8b bc 24 40 01 00 	mov    0x140(%rsp),%rdi
    9a98:	00 
	if (__p)
    9a99:	48 85 ff             	test   %rdi,%rdi
    9a9c:	74 05                	je     9aa3 <_Z23run_symbolic_regressionRKNSt7__cxx1112basic_stringIcSt11char_traitsIcESaIcEEE+0x1c33>
    9a9e:	e8 1d dc 00 00       	callq  176c0 <_ZdlPv@plt>
	_M_deallocate(_M_impl._M_start,
    9aa3:	48 8b bc 24 28 01 00 	mov    0x128(%rsp),%rdi
    9aaa:	00 
	if (__p)
    9aab:	48 85 ff             	test   %rdi,%rdi
    9aae:	74 05                	je     9ab5 <_Z23run_symbolic_regressionRKNSt7__cxx1112basic_stringIcSt11char_traitsIcESaIcEEE+0x1c45>
    9ab0:	e8 0b dc 00 00       	callq  176c0 <_ZdlPv@plt>
	_M_deallocate(_M_impl._M_start,
    9ab5:	48 8b bc 24 10 01 00 	mov    0x110(%rsp),%rdi
    9abc:	00 
	if (__p)
    9abd:	48 85 ff             	test   %rdi,%rdi
    9ac0:	74 05                	je     9ac7 <_Z23run_symbolic_regressionRKNSt7__cxx1112basic_stringIcSt11char_traitsIcESaIcEEE+0x1c57>
    9ac2:	e8 f9 db 00 00       	callq  176c0 <_ZdlPv@plt>
    9ac7:	48 8b 7c 24 68       	mov    0x68(%rsp),%rdi
    9acc:	48 85 ff             	test   %rdi,%rdi
    9acf:	74 05                	je     9ad6 <_Z23run_symbolic_regressionRKNSt7__cxx1112basic_stringIcSt11char_traitsIcESaIcEEE+0x1c66>
    9ad1:	e8 ea db 00 00       	callq  176c0 <_ZdlPv@plt>
    9ad6:	48 8b 7c 24 20       	mov    0x20(%rsp),%rdi
    9adb:	48 85 ff             	test   %rdi,%rdi
    9ade:	74 05                	je     9ae5 <_Z23run_symbolic_regressionRKNSt7__cxx1112basic_stringIcSt11char_traitsIcESaIcEEE+0x1c75>
    9ae0:	e8 db db 00 00       	callq  176c0 <_ZdlPv@plt>
    9ae5:	48 8b 7c 24 70       	mov    0x70(%rsp),%rdi
    9aea:	48 85 ff             	test   %rdi,%rdi
    9aed:	74 05                	je     9af4 <_Z23run_symbolic_regressionRKNSt7__cxx1112basic_stringIcSt11char_traitsIcESaIcEEE+0x1c84>
    9aef:	e8 cc db 00 00       	callq  176c0 <_ZdlPv@plt>
    9af4:	48 85 ed             	test   %rbp,%rbp
    9af7:	74 08                	je     9b01 <_Z23run_symbolic_regressionRKNSt7__cxx1112basic_stringIcSt11char_traitsIcESaIcEEE+0x1c91>
    9af9:	48 89 ef             	mov    %rbp,%rdi
    9afc:	e8 bf db 00 00       	callq  176c0 <_ZdlPv@plt>
    9b01:	4d 85 ed             	test   %r13,%r13
    9b04:	74 08                	je     9b0e <_Z23run_symbolic_regressionRKNSt7__cxx1112basic_stringIcSt11char_traitsIcESaIcEEE+0x1c9e>
    9b06:	4c 89 ef             	mov    %r13,%rdi
    9b09:	e8 b2 db 00 00       	callq  176c0 <_ZdlPv@plt>
	std::_Destroy(this->_M_impl._M_start, this->_M_impl._M_finish,
    9b0e:	48 8b 9c 24 c8 00 00 	mov    0xc8(%rsp),%rbx
    9b15:	00 
    9b16:	4c 8b b4 24 d0 00 00 	mov    0xd0(%rsp),%r14
    9b1d:	00 
    9b1e:	4c 39 f3             	cmp    %r14,%rbx
    9b21:	0f 84 91 00 00 00    	je     9bb8 <_Z23run_symbolic_regressionRKNSt7__cxx1112basic_stringIcSt11char_traitsIcESaIcEEE+0x1d48>
    9b27:	49 89 df             	mov    %rbx,%r15
    9b2a:	eb 7d                	jmp    9ba9 <_Z23run_symbolic_regressionRKNSt7__cxx1112basic_stringIcSt11char_traitsIcESaIcEEE+0x1d39>
    9b2c:	0f 1f 40 00          	nopl   0x0(%rax)
    9b30:	48 83 c3 18          	add    $0x18,%rbx
    9b34:	4c 39 f3             	cmp    %r14,%rbx
    9b37:	0f 84 3b 02 00 00    	je     9d78 <_Z23run_symbolic_regressionRKNSt7__cxx1112basic_stringIcSt11char_traitsIcESaIcEEE+0x1f08>
    9b3d:	4c 8b 3b             	mov    (%rbx),%r15
    9b40:	4c 8b 63 08          	mov    0x8(%rbx),%r12
    9b44:	4d 39 e7             	cmp    %r12,%r15
    9b47:	74 1b                	je     9b64 <_Z23run_symbolic_regressionRKNSt7__cxx1112basic_stringIcSt11char_traitsIcESaIcEEE+0x1cf4>
    9b49:	0f 1f 80 00 00 00 00 	nopl   0x0(%rax)
      __pointer->~_Tp();
    9b50:	4c 89 ff             	mov    %r15,%rdi
    9b53:	e8 c8 41 00 00       	callq  dd20 <_ZN7genetic7programD1Ev>
	  for (; __first != __last; ++__first)
    9b58:	49 83 c7 20          	add    $0x20,%r15
    9b5c:	4d 39 e7             	cmp    %r12,%r15
    9b5f:	75 ef                	jne    9b50 <_Z23run_symbolic_regressionRKNSt7__cxx1112basic_stringIcSt11char_traitsIcESaIcEEE+0x1ce0>
	_M_deallocate(_M_impl._M_start,
    9b61:	4c 8b 3b             	mov    (%rbx),%r15
	if (__p)
    9b64:	4d 85 ff             	test   %r15,%r15
    9b67:	74 c7                	je     9b30 <_Z23run_symbolic_regressionRKNSt7__cxx1112basic_stringIcSt11char_traitsIcESaIcEEE+0x1cc0>
    9b69:	4c 89 ff             	mov    %r15,%rdi
    9b6c:	e8 4f db 00 00       	callq  176c0 <_ZdlPv@plt>
    9b71:	eb bd                	jmp    9b30 <_Z23run_symbolic_regressionRKNSt7__cxx1112basic_stringIcSt11char_traitsIcESaIcEEE+0x1cc0>
    9b73:	66 66 66 66 2e 0f 1f 	data16 data16 data16 nopw %cs:0x0(%rax,%rax,1)
    9b7a:	84 00 00 00 00 00 
    9b80:	48 83 c3 10          	add    $0x10,%rbx
    9b84:	4c 39 f3             	cmp    %r14,%rbx
    9b87:	0f 84 01 02 00 00    	je     9d8e <_Z23run_symbolic_regressionRKNSt7__cxx1112basic_stringIcSt11char_traitsIcESaIcEEE+0x1f1e>
      { return _M_dataplus._M_p; }
    9b8d:	48 8b 3b             	mov    (%rbx),%rdi
      { return _M_data() == _M_local_data(); }
    9b90:	48 83 c3 10          	add    $0x10,%rbx
    9b94:	48 39 df             	cmp    %rbx,%rdi
	if (!_M_is_local())
    9b97:	74 e7                	je     9b80 <_Z23run_symbolic_regressionRKNSt7__cxx1112basic_stringIcSt11char_traitsIcESaIcEEE+0x1d10>
    9b99:	e8 22 db 00 00       	callq  176c0 <_ZdlPv@plt>
    9b9e:	eb e0                	jmp    9b80 <_Z23run_symbolic_regressionRKNSt7__cxx1112basic_stringIcSt11char_traitsIcESaIcEEE+0x1d10>
    9ba0:	49 83 c7 18          	add    $0x18,%r15
    9ba4:	4d 39 f7             	cmp    %r14,%r15
    9ba7:	74 0f                	je     9bb8 <_Z23run_symbolic_regressionRKNSt7__cxx1112basic_stringIcSt11char_traitsIcESaIcEEE+0x1d48>
	_M_deallocate(_M_impl._M_start,
    9ba9:	49 8b 3f             	mov    (%r15),%rdi
	if (__p)
    9bac:	48 85 ff             	test   %rdi,%rdi
    9baf:	74 ef                	je     9ba0 <_Z23run_symbolic_regressionRKNSt7__cxx1112basic_stringIcSt11char_traitsIcESaIcEEE+0x1d30>
    9bb1:	e8 0a db 00 00       	callq  176c0 <_ZdlPv@plt>
    9bb6:	eb e8                	jmp    9ba0 <_Z23run_symbolic_regressionRKNSt7__cxx1112basic_stringIcSt11char_traitsIcESaIcEEE+0x1d30>
    9bb8:	48 85 db             	test   %rbx,%rbx
    9bbb:	74 08                	je     9bc5 <_Z23run_symbolic_regressionRKNSt7__cxx1112basic_stringIcSt11char_traitsIcESaIcEEE+0x1d55>
    9bbd:	48 89 df             	mov    %rbx,%rdi
    9bc0:	e8 fb da 00 00       	callq  176c0 <_ZdlPv@plt>
	std::_Destroy(this->_M_impl._M_start, this->_M_impl._M_finish,
    9bc5:	48 8b 9c 24 40 02 00 	mov    0x240(%rsp),%rbx
    9bcc:	00 
    9bcd:	4c 8b b4 24 48 02 00 	mov    0x248(%rsp),%r14
    9bd4:	00 
    9bd5:	4c 39 f3             	cmp    %r14,%rbx
    9bd8:	74 1e                	je     9bf8 <_Z23run_symbolic_regressionRKNSt7__cxx1112basic_stringIcSt11char_traitsIcESaIcEEE+0x1d88>
    9bda:	49 89 df             	mov    %rbx,%r15
    9bdd:	eb 0a                	jmp    9be9 <_Z23run_symbolic_regressionRKNSt7__cxx1112basic_stringIcSt11char_traitsIcESaIcEEE+0x1d79>
    9bdf:	90                   	nop
    9be0:	49 83 c7 18          	add    $0x18,%r15
    9be4:	4d 39 f7             	cmp    %r14,%r15
    9be7:	74 0f                	je     9bf8 <_Z23run_symbolic_regressionRKNSt7__cxx1112basic_stringIcSt11char_traitsIcESaIcEEE+0x1d88>
	_M_deallocate(_M_impl._M_start,
    9be9:	49 8b 3f             	mov    (%r15),%rdi
	if (__p)
    9bec:	48 85 ff             	test   %rdi,%rdi
    9bef:	74 ef                	je     9be0 <_Z23run_symbolic_regressionRKNSt7__cxx1112basic_stringIcSt11char_traitsIcESaIcEEE+0x1d70>
    9bf1:	e8 ca da 00 00       	callq  176c0 <_ZdlPv@plt>
    9bf6:	eb e8                	jmp    9be0 <_Z23run_symbolic_regressionRKNSt7__cxx1112basic_stringIcSt11char_traitsIcESaIcEEE+0x1d70>
    9bf8:	48 85 db             	test   %rbx,%rbx
    9bfb:	74 08                	je     9c05 <_Z23run_symbolic_regressionRKNSt7__cxx1112basic_stringIcSt11char_traitsIcESaIcEEE+0x1d95>
    9bfd:	48 89 df             	mov    %rbx,%rdi
    9c00:	e8 bb da 00 00       	callq  176c0 <_ZdlPv@plt>
	_M_deallocate(_M_impl._M_start,
    9c05:	48 8b bc 24 70 02 00 	mov    0x270(%rsp),%rdi
    9c0c:	00 
	if (__p)
    9c0d:	48 85 ff             	test   %rdi,%rdi
    9c10:	74 05                	je     9c17 <_Z23run_symbolic_regressionRKNSt7__cxx1112basic_stringIcSt11char_traitsIcESaIcEEE+0x1da7>
    9c12:	e8 a9 da 00 00       	callq  176c0 <_ZdlPv@plt>
	_M_deallocate(_M_impl._M_start,
    9c17:	48 8b bc 24 58 02 00 	mov    0x258(%rsp),%rdi
    9c1e:	00 
	if (__p)
    9c1f:	48 85 ff             	test   %rdi,%rdi
    9c22:	74 05                	je     9c29 <_Z23run_symbolic_regressionRKNSt7__cxx1112basic_stringIcSt11char_traitsIcESaIcEEE+0x1db9>
    9c24:	e8 97 da 00 00       	callq  176c0 <_ZdlPv@plt>
	std::_Destroy(this->_M_impl._M_start, this->_M_impl._M_finish,
    9c29:	48 8b 9c 24 f8 01 00 	mov    0x1f8(%rsp),%rbx
    9c30:	00 
    9c31:	4c 8b b4 24 00 02 00 	mov    0x200(%rsp),%r14
    9c38:	00 
    9c39:	4c 39 f3             	cmp    %r14,%rbx
    9c3c:	0f 85 cb 00 00 00    	jne    9d0d <_Z23run_symbolic_regressionRKNSt7__cxx1112basic_stringIcSt11char_traitsIcESaIcEEE+0x1e9d>
	if (__p)
    9c42:	48 85 db             	test   %rbx,%rbx
    9c45:	74 08                	je     9c4f <_Z23run_symbolic_regressionRKNSt7__cxx1112basic_stringIcSt11char_traitsIcESaIcEEE+0x1ddf>
    9c47:	48 89 df             	mov    %rbx,%rdi
    9c4a:	e8 71 da 00 00       	callq  176c0 <_ZdlPv@plt>
	std::_Destroy(this->_M_impl._M_start, this->_M_impl._M_finish,
    9c4f:	48 8b 9c 24 e0 01 00 	mov    0x1e0(%rsp),%rbx
    9c56:	00 
    9c57:	4c 8b b4 24 e8 01 00 	mov    0x1e8(%rsp),%r14
    9c5e:	00 
    9c5f:	4c 39 f3             	cmp    %r14,%rbx
    9c62:	0f 85 c5 00 00 00    	jne    9d2d <_Z23run_symbolic_regressionRKNSt7__cxx1112basic_stringIcSt11char_traitsIcESaIcEEE+0x1ebd>
	if (__p)
    9c68:	48 85 db             	test   %rbx,%rbx
    9c6b:	74 08                	je     9c75 <_Z23run_symbolic_regressionRKNSt7__cxx1112basic_stringIcSt11char_traitsIcESaIcEEE+0x1e05>
    9c6d:	48 89 df             	mov    %rbx,%rdi
    9c70:	e8 4b da 00 00       	callq  176c0 <_ZdlPv@plt>
	_M_deallocate(_M_impl._M_start,
    9c75:	48 8b bc 24 b0 00 00 	mov    0xb0(%rsp),%rdi
    9c7c:	00 
	if (__p)
    9c7d:	48 85 ff             	test   %rdi,%rdi
    9c80:	74 05                	je     9c87 <_Z23run_symbolic_regressionRKNSt7__cxx1112basic_stringIcSt11char_traitsIcESaIcEEE+0x1e17>
    9c82:	e8 39 da 00 00       	callq  176c0 <_ZdlPv@plt>
	std::_Destroy(this->_M_impl._M_start, this->_M_impl._M_finish,
    9c87:	48 8b 9c 24 80 00 00 	mov    0x80(%rsp),%rbx
    9c8e:	00 
    9c8f:	4c 8b b4 24 88 00 00 	mov    0x88(%rsp),%r14
    9c96:	00 
    9c97:	4c 39 f3             	cmp    %r14,%rbx
    9c9a:	0f 85 ad 00 00 00    	jne    9d4d <_Z23run_symbolic_regressionRKNSt7__cxx1112basic_stringIcSt11char_traitsIcESaIcEEE+0x1edd>
	if (__p)
    9ca0:	48 85 db             	test   %rbx,%rbx
    9ca3:	74 08                	je     9cad <_Z23run_symbolic_regressionRKNSt7__cxx1112basic_stringIcSt11char_traitsIcESaIcEEE+0x1e3d>
    9ca5:	48 89 df             	mov    %rbx,%rdi
    9ca8:	e8 13 da 00 00       	callq  176c0 <_ZdlPv@plt>
	_M_deallocate(_M_impl._M_start,
    9cad:	48 8b bc 24 28 02 00 	mov    0x228(%rsp),%rdi
    9cb4:	00 
	if (__p)
    9cb5:	48 85 ff             	test   %rdi,%rdi
    9cb8:	74 05                	je     9cbf <_Z23run_symbolic_regressionRKNSt7__cxx1112basic_stringIcSt11char_traitsIcESaIcEEE+0x1e4f>
    9cba:	e8 01 da 00 00       	callq  176c0 <_ZdlPv@plt>
	std::_Destroy(this->_M_impl._M_start, this->_M_impl._M_finish,
    9cbf:	48 8b 9c 24 10 02 00 	mov    0x210(%rsp),%rbx
    9cc6:	00 
    9cc7:	4c 8b b4 24 18 02 00 	mov    0x218(%rsp),%r14
    9cce:	00 
    9ccf:	4c 39 f3             	cmp    %r14,%rbx
    9cd2:	0f 85 91 00 00 00    	jne    9d69 <_Z23run_symbolic_regressionRKNSt7__cxx1112basic_stringIcSt11char_traitsIcESaIcEEE+0x1ef9>
	if (__p)
    9cd8:	48 85 db             	test   %rbx,%rbx
    9cdb:	74 08                	je     9ce5 <_Z23run_symbolic_regressionRKNSt7__cxx1112basic_stringIcSt11char_traitsIcESaIcEEE+0x1e75>
    9cdd:	48 89 df             	mov    %rbx,%rdi
    9ce0:	e8 db d9 00 00       	callq  176c0 <_ZdlPv@plt>
}
    9ce5:	48 81 c4 d8 02 00 00 	add    $0x2d8,%rsp
    9cec:	5b                   	pop    %rbx
    9ced:	41 5c                	pop    %r12
    9cef:	41 5d                	pop    %r13
    9cf1:	41 5e                	pop    %r14
    9cf3:	41 5f                	pop    %r15
    9cf5:	5d                   	pop    %rbp
    9cf6:	c3                   	retq   
    9cf7:	66 0f 1f 84 00 00 00 	nopw   0x0(%rax,%rax,1)
    9cfe:	00 00 
    9d00:	48 83 c3 18          	add    $0x18,%rbx
    9d04:	4c 39 f3             	cmp    %r14,%rbx
    9d07:	0f 84 97 00 00 00    	je     9da4 <_Z23run_symbolic_regressionRKNSt7__cxx1112basic_stringIcSt11char_traitsIcESaIcEEE+0x1f34>
	_M_deallocate(_M_impl._M_start,
    9d0d:	48 8b 3b             	mov    (%rbx),%rdi
	if (__p)
    9d10:	48 85 ff             	test   %rdi,%rdi
    9d13:	74 eb                	je     9d00 <_Z23run_symbolic_regressionRKNSt7__cxx1112basic_stringIcSt11char_traitsIcESaIcEEE+0x1e90>
    9d15:	e8 a6 d9 00 00       	callq  176c0 <_ZdlPv@plt>
    9d1a:	eb e4                	jmp    9d00 <_Z23run_symbolic_regressionRKNSt7__cxx1112basic_stringIcSt11char_traitsIcESaIcEEE+0x1e90>
    9d1c:	0f 1f 40 00          	nopl   0x0(%rax)
    9d20:	48 83 c3 18          	add    $0x18,%rbx
    9d24:	4c 39 f3             	cmp    %r14,%rbx
    9d27:	0f 84 8d 00 00 00    	je     9dba <_Z23run_symbolic_regressionRKNSt7__cxx1112basic_stringIcSt11char_traitsIcESaIcEEE+0x1f4a>
	_M_deallocate(_M_impl._M_start,
    9d2d:	48 8b 3b             	mov    (%rbx),%rdi
	if (__p)
    9d30:	48 85 ff             	test   %rdi,%rdi
    9d33:	74 eb                	je     9d20 <_Z23run_symbolic_regressionRKNSt7__cxx1112basic_stringIcSt11char_traitsIcESaIcEEE+0x1eb0>
    9d35:	e8 86 d9 00 00       	callq  176c0 <_ZdlPv@plt>
    9d3a:	eb e4                	jmp    9d20 <_Z23run_symbolic_regressionRKNSt7__cxx1112basic_stringIcSt11char_traitsIcESaIcEEE+0x1eb0>
    9d3c:	0f 1f 40 00          	nopl   0x0(%rax)
    9d40:	48 83 c3 18          	add    $0x18,%rbx
    9d44:	4c 39 f3             	cmp    %r14,%rbx
    9d47:	0f 84 83 00 00 00    	je     9dd0 <_Z23run_symbolic_regressionRKNSt7__cxx1112basic_stringIcSt11char_traitsIcESaIcEEE+0x1f60>
	_M_deallocate(_M_impl._M_start,
    9d4d:	48 8b 3b             	mov    (%rbx),%rdi
	if (__p)
    9d50:	48 85 ff             	test   %rdi,%rdi
    9d53:	74 eb                	je     9d40 <_Z23run_symbolic_regressionRKNSt7__cxx1112basic_stringIcSt11char_traitsIcESaIcEEE+0x1ed0>
    9d55:	e8 66 d9 00 00       	callq  176c0 <_ZdlPv@plt>
    9d5a:	eb e4                	jmp    9d40 <_Z23run_symbolic_regressionRKNSt7__cxx1112basic_stringIcSt11char_traitsIcESaIcEEE+0x1ed0>
    9d5c:	0f 1f 40 00          	nopl   0x0(%rax)
    9d60:	48 83 c3 18          	add    $0x18,%rbx
    9d64:	4c 39 f3             	cmp    %r14,%rbx
    9d67:	74 7d                	je     9de6 <_Z23run_symbolic_regressionRKNSt7__cxx1112basic_stringIcSt11char_traitsIcESaIcEEE+0x1f76>
	_M_deallocate(_M_impl._M_start,
    9d69:	48 8b 3b             	mov    (%rbx),%rdi
	if (__p)
    9d6c:	48 85 ff             	test   %rdi,%rdi
    9d6f:	74 ef                	je     9d60 <_Z23run_symbolic_regressionRKNSt7__cxx1112basic_stringIcSt11char_traitsIcESaIcEEE+0x1ef0>
    9d71:	e8 4a d9 00 00       	callq  176c0 <_ZdlPv@plt>
    9d76:	eb e8                	jmp    9d60 <_Z23run_symbolic_regressionRKNSt7__cxx1112basic_stringIcSt11char_traitsIcESaIcEEE+0x1ef0>
	_M_deallocate(_M_impl._M_start,
    9d78:	48 8b 9c 24 c0 01 00 	mov    0x1c0(%rsp),%rbx
    9d7f:	00 
	if (__p)
    9d80:	48 85 db             	test   %rbx,%rbx
    9d83:	0f 85 c8 fc ff ff    	jne    9a51 <_Z23run_symbolic_regressionRKNSt7__cxx1112basic_stringIcSt11char_traitsIcESaIcEEE+0x1be1>
    9d89:	e9 cb fc ff ff       	jmpq   9a59 <_Z23run_symbolic_regressionRKNSt7__cxx1112basic_stringIcSt11char_traitsIcESaIcEEE+0x1be9>
	_M_deallocate(_M_impl._M_start,
    9d8e:	48 8b 9c 24 98 01 00 	mov    0x198(%rsp),%rbx
    9d95:	00 
	if (__p)
    9d96:	48 85 db             	test   %rbx,%rbx
    9d99:	0f 85 d8 fc ff ff    	jne    9a77 <_Z23run_symbolic_regressionRKNSt7__cxx1112basic_stringIcSt11char_traitsIcESaIcEEE+0x1c07>
    9d9f:	e9 db fc ff ff       	jmpq   9a7f <_Z23run_symbolic_regressionRKNSt7__cxx1112basic_stringIcSt11char_traitsIcESaIcEEE+0x1c0f>
	_M_deallocate(_M_impl._M_start,
    9da4:	48 8b 9c 24 f8 01 00 	mov    0x1f8(%rsp),%rbx
    9dab:	00 
	if (__p)
    9dac:	48 85 db             	test   %rbx,%rbx
    9daf:	0f 85 92 fe ff ff    	jne    9c47 <_Z23run_symbolic_regressionRKNSt7__cxx1112basic_stringIcSt11char_traitsIcESaIcEEE+0x1dd7>
    9db5:	e9 95 fe ff ff       	jmpq   9c4f <_Z23run_symbolic_regressionRKNSt7__cxx1112basic_stringIcSt11char_traitsIcESaIcEEE+0x1ddf>
	_M_deallocate(_M_impl._M_start,
    9dba:	48 8b 9c 24 e0 01 00 	mov    0x1e0(%rsp),%rbx
    9dc1:	00 
	if (__p)
    9dc2:	48 85 db             	test   %rbx,%rbx
    9dc5:	0f 85 a2 fe ff ff    	jne    9c6d <_Z23run_symbolic_regressionRKNSt7__cxx1112basic_stringIcSt11char_traitsIcESaIcEEE+0x1dfd>
    9dcb:	e9 a5 fe ff ff       	jmpq   9c75 <_Z23run_symbolic_regressionRKNSt7__cxx1112basic_stringIcSt11char_traitsIcESaIcEEE+0x1e05>
	_M_deallocate(_M_impl._M_start,
    9dd0:	48 8b 9c 24 80 00 00 	mov    0x80(%rsp),%rbx
    9dd7:	00 
	if (__p)
    9dd8:	48 85 db             	test   %rbx,%rbx
    9ddb:	0f 85 c4 fe ff ff    	jne    9ca5 <_Z23run_symbolic_regressionRKNSt7__cxx1112basic_stringIcSt11char_traitsIcESaIcEEE+0x1e35>
    9de1:	e9 c7 fe ff ff       	jmpq   9cad <_Z23run_symbolic_regressionRKNSt7__cxx1112basic_stringIcSt11char_traitsIcESaIcEEE+0x1e3d>
	_M_deallocate(_M_impl._M_start,
    9de6:	48 8b 9c 24 10 02 00 	mov    0x210(%rsp),%rbx
    9ded:	00 
	if (__p)
    9dee:	48 85 db             	test   %rbx,%rbx
    9df1:	0f 85 e6 fe ff ff    	jne    9cdd <_Z23run_symbolic_regressionRKNSt7__cxx1112basic_stringIcSt11char_traitsIcESaIcEEE+0x1e6d>
    9df7:	e9 e9 fe ff ff       	jmpq   9ce5 <_Z23run_symbolic_regressionRKNSt7__cxx1112basic_stringIcSt11char_traitsIcESaIcEEE+0x1e75>
    9dfc:	4d 89 c6             	mov    %r8,%r14
        } else if (rf < rf2) {
    9dff:	0f 2e ca             	ucomiss %xmm2,%xmm1
    9e02:	0f 86 14 ee ff ff    	jbe    8c1c <_Z23run_symbolic_regressionRKNSt7__cxx1112basic_stringIcSt11char_traitsIcESaIcEEE+0xdac>
    9e08:	48 89 cd             	mov    %rcx,%rbp
    9e0b:	e9 0c ee ff ff       	jmpq   8c1c <_Z23run_symbolic_regressionRKNSt7__cxx1112basic_stringIcSt11char_traitsIcESaIcEEE+0xdac>
	__throw_bad_cast();
    9e10:	e8 bb d8 00 00       	callq  176d0 <_ZSt16__throw_bad_castv@plt>
    9e15:	e8 b6 d8 00 00       	callq  176d0 <_ZSt16__throw_bad_castv@plt>
    9e1a:	e8 b1 d8 00 00       	callq  176d0 <_ZSt16__throw_bad_castv@plt>
    9e1f:	e8 ac d8 00 00       	callq  176d0 <_ZSt16__throw_bad_castv@plt>
	  __throw_length_error(
    9e24:	48 8d 3d 98 8f ff ff 	lea    -0x7068(%rip),%rdi        # 2dc3 <_IO_stdin_used+0x6d3>
    9e2b:	e8 40 d7 00 00       	callq  17570 <_ZSt20__throw_length_errorPKc@plt>
    9e30:	e8 9b d8 00 00       	callq  176d0 <_ZSt16__throw_bad_castv@plt>
    9e35:	48 8d 3d 87 8f ff ff 	lea    -0x7079(%rip),%rdi        # 2dc3 <_IO_stdin_used+0x6d3>
    9e3c:	e8 2f d7 00 00       	callq  17570 <_ZSt20__throw_length_errorPKc@plt>
    9e41:	48 8d 3d 7b 8f ff ff 	lea    -0x7085(%rip),%rdi        # 2dc3 <_IO_stdin_used+0x6d3>
    9e48:	e8 23 d7 00 00       	callq  17570 <_ZSt20__throw_length_errorPKc@plt>
            throw std::runtime_error("Arrays must have the same length");
    9e4d:	bf 10 00 00 00       	mov    $0x10,%edi
    9e52:	e8 89 d8 00 00       	callq  176e0 <__cxa_allocate_exception@plt>
    9e57:	49 89 c6             	mov    %rax,%r14
    9e5a:	48 8d 35 dc 8c ff ff 	lea    -0x7324(%rip),%rsi        # 2b3d <_IO_stdin_used+0x44d>
    9e61:	48 89 c7             	mov    %rax,%rdi
    9e64:	e8 c7 d7 00 00       	callq  17630 <_ZNSt13runtime_errorC1EPKc@plt>
    9e69:	48 8b 35 58 ef 00 00 	mov    0xef58(%rip),%rsi        # 18dc8 <_ZTISt13runtime_error@GLIBCXX_3.4>
    9e70:	48 8b 15 61 ef 00 00 	mov    0xef61(%rip),%rdx        # 18dd8 <_ZNSt13runtime_errorD1Ev@GLIBCXX_3.4>
    9e77:	4c 89 f7             	mov    %r14,%rdi
    9e7a:	e8 11 d8 00 00       	callq  17690 <__cxa_throw@plt>
    9e7f:	bf 10 00 00 00       	mov    $0x10,%edi
    9e84:	e8 57 d8 00 00       	callq  176e0 <__cxa_allocate_exception@plt>
    9e89:	49 89 c6             	mov    %rax,%r14
    9e8c:	48 8d 35 aa 8c ff ff 	lea    -0x7356(%rip),%rsi        # 2b3d <_IO_stdin_used+0x44d>
    9e93:	48 89 c7             	mov    %rax,%rdi
    9e96:	e8 95 d7 00 00       	callq  17630 <_ZNSt13runtime_errorC1EPKc@plt>
    9e9b:	48 8b 35 26 ef 00 00 	mov    0xef26(%rip),%rsi        # 18dc8 <_ZTISt13runtime_error@GLIBCXX_3.4>
    9ea2:	48 8b 15 2f ef 00 00 	mov    0xef2f(%rip),%rdx        # 18dd8 <_ZNSt13runtime_errorD1Ev@GLIBCXX_3.4>
    9ea9:	4c 89 f7             	mov    %r14,%rdi
    9eac:	e8 df d7 00 00       	callq  17690 <__cxa_throw@plt>
	  std::__throw_bad_alloc();
    9eb1:	e8 ea d7 00 00       	callq  176a0 <_ZSt17__throw_bad_allocv@plt>
    9eb6:	e8 e5 d7 00 00       	callq  176a0 <_ZSt17__throw_bad_allocv@plt>
    9ebb:	e8 e0 d7 00 00       	callq  176a0 <_ZSt17__throw_bad_allocv@plt>
    9ec0:	e8 db d7 00 00       	callq  176a0 <_ZSt17__throw_bad_allocv@plt>
    9ec5:	e8 d6 d7 00 00       	callq  176a0 <_ZSt17__throw_bad_allocv@plt>
    9eca:	e8 d1 d7 00 00       	callq  176a0 <_ZSt17__throw_bad_allocv@plt>
    9ecf:	48 8d 3d ed 8e ff ff 	lea    -0x7113(%rip),%rdi        # 2dc3 <_IO_stdin_used+0x6d3>
    9ed6:	e8 95 d6 00 00       	callq  17570 <_ZSt20__throw_length_errorPKc@plt>
    9edb:	48 8d 3d e1 8e ff ff 	lea    -0x711f(%rip),%rdi        # 2dc3 <_IO_stdin_used+0x6d3>
    9ee2:	e8 89 d6 00 00       	callq  17570 <_ZSt20__throw_length_errorPKc@plt>
    9ee7:	e8 e4 d7 00 00       	callq  176d0 <_ZSt16__throw_bad_castv@plt>
    9eec:	e8 df d7 00 00       	callq  176d0 <_ZSt16__throw_bad_castv@plt>
    9ef1:	e9 e6 01 00 00       	jmpq   a0dc <_Z23run_symbolic_regressionRKNSt7__cxx1112basic_stringIcSt11char_traitsIcESaIcEEE+0x226c>
    9ef6:	eb 05                	jmp    9efd <_Z23run_symbolic_regressionRKNSt7__cxx1112basic_stringIcSt11char_traitsIcESaIcEEE+0x208d>
    9ef8:	e9 df 01 00 00       	jmpq   a0dc <_Z23run_symbolic_regressionRKNSt7__cxx1112basic_stringIcSt11char_traitsIcESaIcEEE+0x226c>
    9efd:	49 89 c7             	mov    %rax,%r15
    9f00:	4c 89 f7             	mov    %r14,%rdi
    9f03:	e8 e8 d8 00 00       	callq  177f0 <__cxa_free_exception@plt>
	if (__p)
    9f08:	48 85 db             	test   %rbx,%rbx
    9f0b:	0f 84 9e 01 00 00    	je     a0af <_Z23run_symbolic_regressionRKNSt7__cxx1112basic_stringIcSt11char_traitsIcESaIcEEE+0x223f>
    9f11:	e9 ce 01 00 00       	jmpq   a0e4 <_Z23run_symbolic_regressionRKNSt7__cxx1112basic_stringIcSt11char_traitsIcESaIcEEE+0x2274>
    9f16:	49 89 c7             	mov    %rax,%r15
    9f19:	e9 09 02 00 00       	jmpq   a127 <_Z23run_symbolic_regressionRKNSt7__cxx1112basic_stringIcSt11char_traitsIcESaIcEEE+0x22b7>
    9f1e:	49 89 c7             	mov    %rax,%r15
    9f21:	e9 01 02 00 00       	jmpq   a127 <_Z23run_symbolic_regressionRKNSt7__cxx1112basic_stringIcSt11char_traitsIcESaIcEEE+0x22b7>
    9f26:	49 89 c7             	mov    %rax,%r15
    9f29:	e9 f9 01 00 00       	jmpq   a127 <_Z23run_symbolic_regressionRKNSt7__cxx1112basic_stringIcSt11char_traitsIcESaIcEEE+0x22b7>
    9f2e:	e9 65 01 00 00       	jmpq   a098 <_Z23run_symbolic_regressionRKNSt7__cxx1112basic_stringIcSt11char_traitsIcESaIcEEE+0x2228>
    9f33:	e9 a4 01 00 00       	jmpq   a0dc <_Z23run_symbolic_regressionRKNSt7__cxx1112basic_stringIcSt11char_traitsIcESaIcEEE+0x226c>
    9f38:	e9 9f 01 00 00       	jmpq   a0dc <_Z23run_symbolic_regressionRKNSt7__cxx1112basic_stringIcSt11char_traitsIcESaIcEEE+0x226c>
    9f3d:	e9 13 01 00 00       	jmpq   a055 <_Z23run_symbolic_regressionRKNSt7__cxx1112basic_stringIcSt11char_traitsIcESaIcEEE+0x21e5>
    9f42:	49 89 c7             	mov    %rax,%r15
    9f45:	e9 77 01 00 00       	jmpq   a0c1 <_Z23run_symbolic_regressionRKNSt7__cxx1112basic_stringIcSt11char_traitsIcESaIcEEE+0x2251>
    9f4a:	49 89 c7             	mov    %rax,%r15
    9f4d:	e9 d5 01 00 00       	jmpq   a127 <_Z23run_symbolic_regressionRKNSt7__cxx1112basic_stringIcSt11char_traitsIcESaIcEEE+0x22b7>
    9f52:	49 89 c7             	mov    %rax,%r15
	_M_deallocate(_M_impl._M_start,
    9f55:	48 8b bc 24 58 01 00 	mov    0x158(%rsp),%rdi
    9f5c:	00 
	if (__p)
    9f5d:	48 85 ff             	test   %rdi,%rdi
    9f60:	74 05                	je     9f67 <_Z23run_symbolic_regressionRKNSt7__cxx1112basic_stringIcSt11char_traitsIcESaIcEEE+0x20f7>
	::operator delete(__p
    9f62:	e8 59 d7 00 00       	callq  176c0 <_ZdlPv@plt>
	_M_deallocate(_M_impl._M_start,
    9f67:	48 8b bc 24 40 01 00 	mov    0x140(%rsp),%rdi
    9f6e:	00 
	if (__p)
    9f6f:	48 85 ff             	test   %rdi,%rdi
    9f72:	74 05                	je     9f79 <_Z23run_symbolic_regressionRKNSt7__cxx1112basic_stringIcSt11char_traitsIcESaIcEEE+0x2109>
    9f74:	e8 47 d7 00 00       	callq  176c0 <_ZdlPv@plt>
	_M_deallocate(_M_impl._M_start,
    9f79:	48 8b bc 24 28 01 00 	mov    0x128(%rsp),%rdi
    9f80:	00 
	if (__p)
    9f81:	48 85 ff             	test   %rdi,%rdi
    9f84:	74 0a                	je     9f90 <_Z23run_symbolic_regressionRKNSt7__cxx1112basic_stringIcSt11char_traitsIcESaIcEEE+0x2120>
    9f86:	e8 35 d7 00 00       	callq  176c0 <_ZdlPv@plt>
    9f8b:	eb 03                	jmp    9f90 <_Z23run_symbolic_regressionRKNSt7__cxx1112basic_stringIcSt11char_traitsIcESaIcEEE+0x2120>
    9f8d:	49 89 c7             	mov    %rax,%r15
    9f90:	48 8b bc 24 10 01 00 	mov    0x110(%rsp),%rdi
    9f97:	00 
    9f98:	48 85 ff             	test   %rdi,%rdi
    9f9b:	0f 84 93 01 00 00    	je     a134 <_Z23run_symbolic_regressionRKNSt7__cxx1112basic_stringIcSt11char_traitsIcESaIcEEE+0x22c4>
    9fa1:	e8 1a d7 00 00       	callq  176c0 <_ZdlPv@plt>
    9fa6:	e9 89 01 00 00       	jmpq   a134 <_Z23run_symbolic_regressionRKNSt7__cxx1112basic_stringIcSt11char_traitsIcESaIcEEE+0x22c4>
    9fab:	49 89 c7             	mov    %rax,%r15
    9fae:	4d 85 ed             	test   %r13,%r13
    9fb1:	0f 84 d8 01 00 00    	je     a18f <_Z23run_symbolic_regressionRKNSt7__cxx1112basic_stringIcSt11char_traitsIcESaIcEEE+0x231f>
    9fb7:	4c 89 ef             	mov    %r13,%rdi
    9fba:	e8 01 d7 00 00       	callq  176c0 <_ZdlPv@plt>
    9fbf:	e9 cb 01 00 00       	jmpq   a18f <_Z23run_symbolic_regressionRKNSt7__cxx1112basic_stringIcSt11char_traitsIcESaIcEEE+0x231f>
    9fc4:	49 89 c7             	mov    %rax,%r15
    9fc7:	4d 85 f6             	test   %r14,%r14
    9fca:	0f 84 cc 01 00 00    	je     a19c <_Z23run_symbolic_regressionRKNSt7__cxx1112basic_stringIcSt11char_traitsIcESaIcEEE+0x232c>
    9fd0:	48 8b 7c 24 18       	mov    0x18(%rsp),%rdi
    9fd5:	e8 e6 d6 00 00       	callq  176c0 <_ZdlPv@plt>
    9fda:	e9 bd 01 00 00       	jmpq   a19c <_Z23run_symbolic_regressionRKNSt7__cxx1112basic_stringIcSt11char_traitsIcESaIcEEE+0x232c>
    9fdf:	49 89 c7             	mov    %rax,%r15
    9fe2:	e9 c2 01 00 00       	jmpq   a1a9 <_Z23run_symbolic_regressionRKNSt7__cxx1112basic_stringIcSt11char_traitsIcESaIcEEE+0x2339>
    9fe7:	49 89 c7             	mov    %rax,%r15
    9fea:	e9 c7 01 00 00       	jmpq   a1b6 <_Z23run_symbolic_regressionRKNSt7__cxx1112basic_stringIcSt11char_traitsIcESaIcEEE+0x2346>
    9fef:	49 89 c7             	mov    %rax,%r15
	_M_deallocate(_M_impl._M_start,
    9ff2:	48 8b bc 24 80 00 00 	mov    0x80(%rsp),%rdi
    9ff9:	00 
	if (__p)
    9ffa:	48 85 ff             	test   %rdi,%rdi
    9ffd:	0f 84 d2 01 00 00    	je     a1d5 <_Z23run_symbolic_regressionRKNSt7__cxx1112basic_stringIcSt11char_traitsIcESaIcEEE+0x2365>
    a003:	e8 b8 d6 00 00       	callq  176c0 <_ZdlPv@plt>
    a008:	e9 c8 01 00 00       	jmpq   a1d5 <_Z23run_symbolic_regressionRKNSt7__cxx1112basic_stringIcSt11char_traitsIcESaIcEEE+0x2365>
    a00d:	49 89 c7             	mov    %rax,%r15
    a010:	e9 3d 01 00 00       	jmpq   a152 <_Z23run_symbolic_regressionRKNSt7__cxx1112basic_stringIcSt11char_traitsIcESaIcEEE+0x22e2>
    a015:	49 89 c7             	mov    %rax,%r15
    a018:	e9 44 01 00 00       	jmpq   a161 <_Z23run_symbolic_regressionRKNSt7__cxx1112basic_stringIcSt11char_traitsIcESaIcEEE+0x22f1>
    a01d:	49 89 c7             	mov    %rax,%r15
    a020:	e9 4e 01 00 00       	jmpq   a173 <_Z23run_symbolic_regressionRKNSt7__cxx1112basic_stringIcSt11char_traitsIcESaIcEEE+0x2303>
    a025:	49 89 c7             	mov    %rax,%r15
    a028:	e9 55 01 00 00       	jmpq   a182 <_Z23run_symbolic_regressionRKNSt7__cxx1112basic_stringIcSt11char_traitsIcESaIcEEE+0x2312>
    a02d:	49 89 c7             	mov    %rax,%r15
    a030:	e9 5a 01 00 00       	jmpq   a18f <_Z23run_symbolic_regressionRKNSt7__cxx1112basic_stringIcSt11char_traitsIcESaIcEEE+0x231f>
    a035:	49 89 c7             	mov    %rax,%r15
    a038:	e9 5f 01 00 00       	jmpq   a19c <_Z23run_symbolic_regressionRKNSt7__cxx1112basic_stringIcSt11char_traitsIcESaIcEEE+0x232c>
    a03d:	49 89 c7             	mov    %rax,%r15
    a040:	e9 83 01 00 00       	jmpq   a1c8 <_Z23run_symbolic_regressionRKNSt7__cxx1112basic_stringIcSt11char_traitsIcESaIcEEE+0x2358>
    a045:	49 89 c7             	mov    %rax,%r15
    a048:	e9 88 01 00 00       	jmpq   a1d5 <_Z23run_symbolic_regressionRKNSt7__cxx1112basic_stringIcSt11char_traitsIcESaIcEEE+0x2365>
    a04d:	49 89 c7             	mov    %rax,%r15
    a050:	e9 ee 00 00 00       	jmpq   a143 <_Z23run_symbolic_regressionRKNSt7__cxx1112basic_stringIcSt11char_traitsIcESaIcEEE+0x22d3>
    a055:	49 89 c7             	mov    %rax,%r15
    a058:	48 83 7c 24 18 00    	cmpq   $0x0,0x18(%rsp)
    a05e:	75 57                	jne    a0b7 <_Z23run_symbolic_regressionRKNSt7__cxx1112basic_stringIcSt11char_traitsIcESaIcEEE+0x2247>
    a060:	eb 5f                	jmp    a0c1 <_Z23run_symbolic_regressionRKNSt7__cxx1112basic_stringIcSt11char_traitsIcESaIcEEE+0x2251>
    a062:	49 89 c7             	mov    %rax,%r15
    a065:	eb 5a                	jmp    a0c1 <_Z23run_symbolic_regressionRKNSt7__cxx1112basic_stringIcSt11char_traitsIcESaIcEEE+0x2251>
    a067:	49 89 c7             	mov    %rax,%r15
      { return _M_dataplus._M_p; }
    a06a:	48 8b bc 24 88 02 00 	mov    0x288(%rsp),%rdi
    a071:	00 
	return std::pointer_traits<const_pointer>::pointer_to(*_M_local_buf);
    a072:	48 8d 84 24 98 02 00 	lea    0x298(%rsp),%rax
    a079:	00 
      { return _M_data() == _M_local_data(); }
    a07a:	48 39 c7             	cmp    %rax,%rdi
	if (!_M_is_local())
    a07d:	74 1c                	je     a09b <_Z23run_symbolic_regressionRKNSt7__cxx1112basic_stringIcSt11char_traitsIcESaIcEEE+0x222b>
    a07f:	e8 3c d6 00 00       	callq  176c0 <_ZdlPv@plt>
    a084:	eb 15                	jmp    a09b <_Z23run_symbolic_regressionRKNSt7__cxx1112basic_stringIcSt11char_traitsIcESaIcEEE+0x222b>
    a086:	eb 10                	jmp    a098 <_Z23run_symbolic_regressionRKNSt7__cxx1112basic_stringIcSt11char_traitsIcESaIcEEE+0x2228>
    a088:	49 89 c7             	mov    %rax,%r15
    a08b:	e9 97 00 00 00       	jmpq   a127 <_Z23run_symbolic_regressionRKNSt7__cxx1112basic_stringIcSt11char_traitsIcESaIcEEE+0x22b7>
    a090:	49 89 c7             	mov    %rax,%r15
    a093:	e9 1e 01 00 00       	jmpq   a1b6 <_Z23run_symbolic_regressionRKNSt7__cxx1112basic_stringIcSt11char_traitsIcESaIcEEE+0x2346>
    a098:	49 89 c7             	mov    %rax,%r15
      { return _M_dataplus._M_p; }
    a09b:	48 8b 7c 24 30       	mov    0x30(%rsp),%rdi
	return std::pointer_traits<const_pointer>::pointer_to(*_M_local_buf);
    a0a0:	48 8d 44 24 40       	lea    0x40(%rsp),%rax
      { return _M_data() == _M_local_data(); }
    a0a5:	48 39 c7             	cmp    %rax,%rdi
	if (!_M_is_local())
    a0a8:	75 26                	jne    a0d0 <_Z23run_symbolic_regressionRKNSt7__cxx1112basic_stringIcSt11char_traitsIcESaIcEEE+0x2260>
    a0aa:	48 85 db             	test   %rbx,%rbx
    a0ad:	75 35                	jne    a0e4 <_Z23run_symbolic_regressionRKNSt7__cxx1112basic_stringIcSt11char_traitsIcESaIcEEE+0x2274>
    a0af:	48 83 7c 24 18 00    	cmpq   $0x0,0x18(%rsp)
    a0b5:	74 0a                	je     a0c1 <_Z23run_symbolic_regressionRKNSt7__cxx1112basic_stringIcSt11char_traitsIcESaIcEEE+0x2251>
    a0b7:	48 8b 7c 24 18       	mov    0x18(%rsp),%rdi
    a0bc:	e8 ff d5 00 00       	callq  176c0 <_ZdlPv@plt>
    a0c1:	48 8d bc 24 c0 01 00 	lea    0x1c0(%rsp),%rdi
    a0c8:	00 
}
    a0c9:	e8 22 37 00 00       	callq  d7f0 <_ZNSt6vectorIS_IN7genetic7programESaIS1_EESaIS3_EED2Ev>
    a0ce:	eb 57                	jmp    a127 <_Z23run_symbolic_regressionRKNSt7__cxx1112basic_stringIcSt11char_traitsIcESaIcEEE+0x22b7>
    a0d0:	e8 eb d5 00 00       	callq  176c0 <_ZdlPv@plt>
    a0d5:	48 85 db             	test   %rbx,%rbx
    a0d8:	74 d5                	je     a0af <_Z23run_symbolic_regressionRKNSt7__cxx1112basic_stringIcSt11char_traitsIcESaIcEEE+0x223f>
    a0da:	eb 08                	jmp    a0e4 <_Z23run_symbolic_regressionRKNSt7__cxx1112basic_stringIcSt11char_traitsIcESaIcEEE+0x2274>
    a0dc:	49 89 c7             	mov    %rax,%r15
    a0df:	48 85 db             	test   %rbx,%rbx
    a0e2:	74 cb                	je     a0af <_Z23run_symbolic_regressionRKNSt7__cxx1112basic_stringIcSt11char_traitsIcESaIcEEE+0x223f>
    a0e4:	48 89 df             	mov    %rbx,%rdi
    a0e7:	e8 d4 d5 00 00       	callq  176c0 <_ZdlPv@plt>
    a0ec:	48 83 7c 24 18 00    	cmpq   $0x0,0x18(%rsp)
    a0f2:	75 c3                	jne    a0b7 <_Z23run_symbolic_regressionRKNSt7__cxx1112basic_stringIcSt11char_traitsIcESaIcEEE+0x2247>
    a0f4:	eb cb                	jmp    a0c1 <_Z23run_symbolic_regressionRKNSt7__cxx1112basic_stringIcSt11char_traitsIcESaIcEEE+0x2251>
    a0f6:	49 89 c7             	mov    %rax,%r15
    final_programs = new genetic::program[params.population_size]();
    a0f9:	4d 85 ed             	test   %r13,%r13
    a0fc:	74 21                	je     a11f <_Z23run_symbolic_regressionRKNSt7__cxx1112basic_stringIcSt11char_traitsIcESaIcEEE+0x22af>
    a0fe:	49 f7 dd             	neg    %r13
    a101:	4c 89 e3             	mov    %r12,%rbx
    a104:	48 83 c3 e8          	add    $0xffffffffffffffe8,%rbx
    a108:	0f 1f 84 00 00 00 00 	nopl   0x0(%rax,%rax,1)
    a10f:	00 
    a110:	4a 8d 3c 2b          	lea    (%rbx,%r13,1),%rdi
    a114:	e8 07 3c 00 00       	callq  dd20 <_ZN7genetic7programD1Ev>
    a119:	49 83 c5 e0          	add    $0xffffffffffffffe0,%r13
    a11d:	75 f1                	jne    a110 <_Z23run_symbolic_regressionRKNSt7__cxx1112basic_stringIcSt11char_traitsIcESaIcEEE+0x22a0>
    a11f:	4c 89 e7             	mov    %r12,%rdi
    a122:	e8 e9 d5 00 00       	callq  17710 <_ZdaPv@plt>
    a127:	48 8d bc 24 e0 00 00 	lea    0xe0(%rsp),%rdi
    a12e:	00 
}
    a12f:	e8 4c 37 00 00       	callq  d880 <_ZN7genetic5paramD2Ev>
    a134:	48 8b 7c 24 68       	mov    0x68(%rsp),%rdi
    a139:	48 85 ff             	test   %rdi,%rdi
    a13c:	74 05                	je     a143 <_Z23run_symbolic_regressionRKNSt7__cxx1112basic_stringIcSt11char_traitsIcESaIcEEE+0x22d3>
    a13e:	e8 7d d5 00 00       	callq  176c0 <_ZdlPv@plt>
    a143:	48 8b 7c 24 20       	mov    0x20(%rsp),%rdi
    a148:	48 85 ff             	test   %rdi,%rdi
    a14b:	74 05                	je     a152 <_Z23run_symbolic_regressionRKNSt7__cxx1112basic_stringIcSt11char_traitsIcESaIcEEE+0x22e2>
    a14d:	e8 6e d5 00 00       	callq  176c0 <_ZdlPv@plt>
    a152:	48 8b 7c 24 70       	mov    0x70(%rsp),%rdi
